(ideluge.core.torrentmanager
TorrentManagerState
p1
(dp2
S'torrents'
p3
(lp4
(ideluge.core.torrentmanager
TorrentState
p5
(dp6
S'max_download_speed'
p7
F-1
sS'move_completed_path'
p8
S'/home/fgloblek/Downloads'
p9
sS'paused'
p10
I01
sS'max_upload_slots'
p11
I-1
sS'prioritize_first_last'
p12
I00
sS'max_connections'
p13
I-1
sS'compact'
p14
I00
sS'queue'
p15
I25
sS'file_priorities'
p16
(lp17
I4
asS'filename'
p18
S'92344ed2a99878d0fe32019a4046c91ce76d2415'
p19
sS'max_upload_speed'
p20
F-1
sS'save_path'
p21
S'/media/fgloblek/lacie'
p22
sS'time_added'
p23
F1577894766.4181931
sS'total_uploaded'
p24
I21486945
sS'torrent_id'
p25
S'92344ed2a99878d0fe32019a4046c91ce76d2415'
p26
sS'auto_managed'
p27
I01
sS'stop_at_ratio'
p28
I00
sS'move_completed'
p29
I00
sS'trackers'
p30
(lp31
(dp32
S'send_stats'
p33
I01
sS'fails'
p34
I0
sS'verified'
p35
I00
sS'scrape_incomplete'
p36
I-1
sS'min_announce'
p37
NsS'scrape_downloaded'
p38
I-1
sS'url'
p39
S'http://bt3.t-ru.org/ann?magnet'
p40
sS'last_error'
p41
(dp42
S'category'
p43
S'system'
p44
sS'value'
p45
I0
ssS'fail_limit'
p46
I0
sS'next_announce'
p47
NsS'complete_sent'
p48
I00
sS'source'
p49
I4
sS'trackerid'
p50
S''
sS'start_sent'
p51
I00
sS'tier'
p52
I0
sS'scrape_complete'
p53
I-1
sS'message'
p54
S''
sS'updating'
p55
I00
sasS'magnet'
p56
NsS'remove_at_ratio'
p57
I00
sS'stop_ratio'
p58
F2
sS'is_finished'
p59
I01
sba(ideluge.core.torrentmanager
TorrentState
p60
(dp61
g7
F-1
sg8
S'/home/fgloblek/Downloads'
p62
sg10
I01
sg11
I-1
sg12
I00
sg13
I-1
sg14
I00
sg15
I39
sg16
(lp63
I4
asg18
S'661b2365e2226122339cf73197ea0a1d5a8ed392'
p64
sg20
F-1
sg21
S'/media/fgloblek/lacie'
p65
sg23
F1580740621.4477179
sg24
I0
sg25
S'661b2365e2226122339cf73197ea0a1d5a8ed392'
p66
sg27
I01
sg28
I00
sg29
I00
sg30
(lp67
(dp68
S'send_stats'
p69
I01
sS'fails'
p70
I0
sS'verified'
p71
I00
sS'scrape_incomplete'
p72
I-1
sS'min_announce'
p73
NsS'source'
p74
I4
sS'url'
p75
S'udp://tracker.archlinux.org:6969'
p76
sS'last_error'
p77
(dp78
S'category'
p79
S'system'
p80
sS'value'
p81
I0
ssS'fail_limit'
p82
I0
sS'next_announce'
p83
NsS'complete_sent'
p84
I00
sS'scrape_downloaded'
p85
I-1
sS'trackerid'
p86
S''
sS'start_sent'
p87
I00
sS'tier'
p88
I0
sS'scrape_complete'
p89
I-1
sS'message'
p90
S''
sS'updating'
p91
I00
sa(dp92
S'send_stats'
p93
I01
sS'fails'
p94
I0
sS'verified'
p95
I00
sS'scrape_incomplete'
p96
I-1
sS'min_announce'
p97
NsS'source'
p98
I4
sS'url'
p99
S'http://tracker.archlinux.org:6969/announce'
p100
sS'last_error'
p101
(dp102
S'category'
p103
S'system'
p104
sS'value'
p105
I0
ssS'fail_limit'
p106
I0
sS'next_announce'
p107
NsS'complete_sent'
p108
I00
sS'scrape_downloaded'
p109
I-1
sS'trackerid'
p110
S''
sS'start_sent'
p111
I00
sS'tier'
p112
I1
sS'scrape_complete'
p113
I-1
sS'message'
p114
S''
sS'updating'
p115
I00
sasg56
Nsg57
I00
sg58
F2
sg59
I00
sba(ideluge.core.torrentmanager
TorrentState
p116
(dp117
g7
F-1
sg8
S'/home/fgloblek/Downloads'
p118
sg10
I01
sg11
I-1
sg12
I00
sg13
I-1
sg14
I00
sg15
I24
sg16
(lp119
I4
aI4
aI4
aI4
aI4
aI4
aI4
aI4
aI4
aI4
aI4
aI4
aI4
aI4
aI4
aI4
aI4
aI4
aI4
aI4
aI4
aI4
aI4
aI4
aI4
aI4
aI4
aI4
aI4
aI4
aI4
aI4
asg18
S'1889275c2854554d8b33903ae68493578c7d53f8'
p120
sg20
F-1
sg21
S'/media/fgloblek/lacie'
p121
sg23
F1577894948.5907049
sg24
I1490944
sg25
S'1889275c2854554d8b33903ae68493578c7d53f8'
p122
sg27
I01
sg28
I00
sg29
I00
sg30
(lp123
(dp124
S'send_stats'
p125
I01
sS'fails'
p126
I0
sS'verified'
p127
I00
sS'scrape_incomplete'
p128
I-1
sS'min_announce'
p129
NsS'scrape_downloaded'
p130
I-1
sS'url'
p131
S'http://bt.t-ru.org/ann?magnet'
p132
sS'last_error'
p133
(dp134
S'category'
p135
S'system'
p136
sS'value'
p137
I0
ssS'fail_limit'
p138
I0
sS'next_announce'
p139
NsS'complete_sent'
p140
I00
sS'source'
p141
I4
sS'trackerid'
p142
S''
sS'start_sent'
p143
I00
sS'tier'
p144
I0
sS'scrape_complete'
p145
I-1
sS'message'
p146
S''
sS'updating'
p147
I00
sasg56
Nsg57
I00
sg58
F2
sg59
I01
sba(ideluge.core.torrentmanager
TorrentState
p148
(dp149
g7
F-1
sg8
S'/home/fgloblek/Downloads'
p150
sg10
I01
sg11
I-1
sg12
I00
sg13
I-1
sg14
I00
sg15
I23
sg16
(lp151
I1
aI1
aI1
aI1
aI1
aI1
aI1
aI1
aI1
aI1
aI1
aI1
aI1
aI1
aI1
aI1
aI1
aI1
aI1
aI1
aI1
aI1
aI1
aI1
aI1
aI1
aI1
aI1
aI1
aI1
aI1
aI1
aI1
aI1
aI1
aI1
aI1
aI1
aI1
aI1
aI1
aI1
aI1
aI1
aI1
aI1
aI1
aI1
aI1
aI1
aI1
aI1
aI1
aI1
aI1
aI1
aI1
aI1
aI1
aI1
aI1
aI1
aI1
aI1
aI1
aI1
aI1
aI7
aI0
aI0
aI0
aI0
aI0
aI0
aI0
aI0
aI0
aI0
aI0
aI0
aI0
aI0
aI0
aI0
aI0
aI0
aI0
aI0
aI0
aI0
aI0
aI0
aI0
aI0
aI0
aI0
aI0
aI0
aI0
aI0
aI0
aI0
aI0
aI0
aI0
aI0
aI0
aI0
aI0
aI0
aI0
aI0
aI0
aI0
aI0
aI0
aI0
aI0
aI0
aI0
aI0
aI0
aI0
aI0
aI0
aI0
aI0
aI0
aI0
aI0
aI0
aI0
aI0
aI0
aI0
aI0
aI0
aI0
aI0
aI0
aI0
aI0
aI0
aI0
aI0
aI0
aI0
aI0
aI0
aI0
aI0
aI0
aI0
aI0
aI0
aI0
aI0
aI0
aI0
aI0
aI0
aI0
aI0
aI0
aI0
aI0
aI0
aI0
aI0
aI0
aI0
aI0
aI0
aI0
aI0
aI0
aI0
aI0
aI0
aI0
aI0
aI0
aI0
aI0
aI0
aI0
aI0
aI0
aI0
aI0
aI0
aI0
aI0
aI0
aI0
aI0
aI0
aI0
aI0
aI0
aI0
aI0
aI0
aI0
aI0
aI0
aI0
aI0
aI0
aI0
aI0
aI0
aI0
aI0
aI0
aI0
aI0
aI0
aI0
aI0
aI0
aI0
aI0
aI0
aI0
aI0
aI0
aI0
aI0
aI0
aI0
aI0
aI0
aI0
aI0
aI0
aI0
aI0
aI0
aI0
aI0
aI0
aI0
aI0
aI0
aI0
aI0
aI4
aI4
asg18
S'e791a255c68016b50ff28057f9499efd776b1381'
p152
sg20
F-1
sg21
S'/media/fgloblek/lacie'
p153
sg23
F1577894795.9900911
sg24
I0
sg25
S'e791a255c68016b50ff28057f9499efd776b1381'
p154
sg27
I01
sg28
I00
sg29
I00
sg30
(lp155
(dp156
S'send_stats'
p157
I01
sS'fails'
p158
I0
sS'verified'
p159
I00
sS'scrape_incomplete'
p160
I-1
sS'min_announce'
p161
NsS'scrape_downloaded'
p162
I-1
sS'url'
p163
S'http://bt.t-ru.org/ann?magnet'
p164
sS'last_error'
p165
(dp166
S'category'
p167
S'system'
p168
sS'value'
p169
I0
ssS'fail_limit'
p170
I0
sS'next_announce'
p171
NsS'complete_sent'
p172
I00
sS'source'
p173
I4
sS'trackerid'
p174
S''
sS'start_sent'
p175
I00
sS'tier'
p176
I0
sS'scrape_complete'
p177
I-1
sS'message'
p178
S''
sS'updating'
p179
I00
sasg56
Nsg57
I00
sg58
F2
sg59
I01
sba(ideluge.core.torrentmanager
TorrentState
p180
(dp181
g7
F-1
sg8
S'/home/fgloblek/Downloads'
p182
sg10
I01
sg11
I-1
sg12
I00
sg13
I-1
sg14
I00
sg15
I10
sg16
(lp183
I4
asg18
S'4fa3d749ee66591767aa7514af9d2417fd4e03a3'
p184
sg20
F-1
sg21
S'/media/fgloblek/lacie'
p185
sg23
F1566661362.6495991
sg24
I0
sg25
S'4fa3d749ee66591767aa7514af9d2417fd4e03a3'
p186
sg27
I01
sg28
I00
sg29
I00
sg30
(lp187
(dp188
S'send_stats'
p189
I01
sS'fails'
p190
I0
sS'verified'
p191
I00
sS'scrape_incomplete'
p192
I-1
sS'min_announce'
p193
NsS'source'
p194
I4
sS'url'
p195
S'http://bt3.t-ru.org/ann?magnet'
p196
sS'last_error'
p197
(dp198
S'category'
p199
S'system'
p200
sS'value'
p201
I0
ssS'fail_limit'
p202
I0
sS'next_announce'
p203
NsS'complete_sent'
p204
I00
sS'scrape_downloaded'
p205
I-1
sS'trackerid'
p206
S''
sS'start_sent'
p207
I00
sS'tier'
p208
I0
sS'scrape_complete'
p209
I-1
sS'message'
p210
S''
sS'updating'
p211
I00
sasg56
Nsg57
I00
sg58
F2
sg59
I01
sba(ideluge.core.torrentmanager
TorrentState
p212
(dp213
g7
F-1
sg8
S'/home/fgloblek/Downloads'
p214
sg10
I01
sg11
I-1
sg12
I00
sg13
I-1
sg14
I00
sg15
I47
sg16
(lp215
sg18
S'4bd5c9c94cb35e5f2c3ca8a6ae04243c7e2f74e2'
p216
sg20
F-1
sg21
S'/media/fgloblek/lacie'
p217
sg23
F1577894841.9871221
sg24
I0
sg25
S'4bd5c9c94cb35e5f2c3ca8a6ae04243c7e2f74e2'
p218
sg27
I01
sg28
I00
sg29
I00
sg30
(lp219
(dp220
S'send_stats'
p221
I01
sS'fails'
p222
I0
sS'verified'
p223
I00
sS'scrape_incomplete'
p224
I-1
sS'min_announce'
p225
NsS'scrape_downloaded'
p226
I-1
sS'url'
p227
S'http://bt2.t-ru.org/ann?magnet'
p228
sS'last_error'
p229
(dp230
S'category'
p231
S'system'
p232
sS'value'
p233
I0
ssS'fail_limit'
p234
I0
sS'next_announce'
p235
NsS'complete_sent'
p236
I00
sS'source'
p237
I4
sS'trackerid'
p238
S''
sS'start_sent'
p239
I00
sS'tier'
p240
I0
sS'scrape_complete'
p241
I-1
sS'message'
p242
S''
sS'updating'
p243
I00
sasg56
S'magnet:?xt=urn:btih:4BD5C9C94CB35E5F2C3CA8A6AE04243C7E2F74E2&tr=http%3A%2F%2Fbt2.t-ru.org%2Fann%3Fmagnet&dn=http%3A%2F%2Fchinesetutorials.com%20-%20Chinese%20Tutorials%20%5BAVI%2C%202008%5D'
p244
sg57
I00
sg58
F2
sg59
I00
sba(ideluge.core.torrentmanager
TorrentState
p245
(dp246
g7
F-1
sg8
S'/home/fgloblek/Downloads'
p247
sg10
I01
sg11
I-1
sg12
I00
sg13
I-1
sg14
I00
sg15
I42
sg16
(lp248
I4
aI4
aI4
aI4
aI4
aI4
aI4
aI4
aI4
aI4
aI4
aI4
aI4
aI4
aI4
aI4
aI4
aI4
aI4
aI4
aI4
aI4
aI4
aI4
aI4
aI4
aI4
aI4
aI4
aI4
aI4
aI4
aI4
aI4
aI4
aI4
aI4
aI4
aI4
aI4
aI4
aI4
aI4
aI4
aI4
aI4
aI4
aI4
aI4
aI4
aI4
aI4
aI4
aI4
aI4
aI4
aI4
aI4
aI4
aI4
aI4
aI4
aI4
aI4
aI4
aI4
aI4
aI4
aI4
aI4
aI4
aI4
aI4
aI4
aI4
aI4
aI4
aI4
aI4
aI4
aI4
aI4
aI4
aI4
aI4
aI4
aI4
aI4
aI4
aI4
aI4
aI4
aI4
aI4
aI4
aI4
aI4
aI4
aI4
aI4
aI4
aI4
aI4
aI4
aI4
aI4
aI4
aI4
aI4
aI4
aI4
aI4
aI4
aI4
aI4
aI4
aI4
aI4
aI4
aI4
aI4
aI4
aI4
aI4
aI4
aI4
aI4
aI4
aI4
aI4
aI4
aI4
aI4
aI4
aI4
aI4
aI4
aI4
aI4
aI4
aI4
aI4
aI4
aI4
aI4
aI4
aI4
aI4
aI4
aI4
aI4
aI4
aI4
aI4
aI4
aI4
aI4
aI4
aI4
aI4
aI4
aI4
aI4
aI4
aI4
aI4
aI4
aI4
aI4
aI4
aI4
aI4
aI4
aI4
aI4
aI4
aI4
aI4
aI4
aI4
aI4
aI4
aI4
aI4
aI4
aI4
aI4
aI4
aI4
aI4
aI4
aI4
aI4
aI4
aI4
aI4
aI4
aI4
aI4
aI4
aI4
aI4
aI4
aI4
aI4
aI4
aI4
aI4
aI4
aI4
aI4
aI4
aI4
aI4
aI4
aI4
aI4
aI4
aI4
aI4
aI4
aI4
aI4
aI4
aI4
aI4
aI4
aI4
aI4
aI4
aI4
aI4
aI4
aI4
aI4
aI4
aI4
aI4
aI4
aI4
aI4
aI4
aI4
aI4
aI4
aI4
aI4
aI4
aI4
aI4
aI4
aI4
aI4
aI4
aI4
aI4
aI4
aI4
aI4
aI4
aI4
aI4
aI4
aI4
aI4
aI4
aI4
aI4
aI4
aI4
aI4
aI4
aI4
aI4
aI4
aI4
aI4
aI4
aI4
aI4
aI4
aI4
aI4
aI4
aI4
aI4
aI4
aI4
aI4
aI4
aI4
aI4
aI4
aI4
aI4
aI4
aI4
aI4
aI4
aI4
aI4
aI4
aI4
aI4
aI4
aI4
aI4
aI4
aI4
aI4
aI4
aI4
aI4
aI4
aI4
aI4
aI4
aI4
aI4
aI4
aI4
aI4
aI4
aI4
aI4
aI4
aI4
aI4
aI4
aI4
aI4
aI4
aI4
aI4
aI4
aI4
aI4
aI4
aI4
aI4
aI4
aI4
aI4
aI4
aI4
aI4
aI4
aI4
aI4
aI4
aI4
aI4
aI4
aI4
aI4
aI4
aI4
aI4
aI4
aI4
aI4
aI4
aI4
aI4
aI4
aI4
aI4
aI4
aI4
aI4
aI4
aI4
aI4
aI4
aI4
aI4
aI4
aI4
aI4
aI4
aI4
aI4
aI4
aI4
aI4
aI4
aI4
aI4
aI4
aI4
aI4
aI4
aI4
aI4
aI4
aI4
aI4
aI4
aI4
aI4
aI4
aI4
aI4
aI4
aI4
aI4
aI4
aI4
aI4
aI4
aI4
aI4
aI4
aI4
aI4
aI4
aI4
aI4
aI4
aI4
aI4
aI4
aI4
aI4
aI4
aI4
aI4
aI4
aI4
aI4
aI4
aI4
aI4
aI4
aI4
aI4
aI4
aI4
aI4
aI4
aI4
aI4
aI4
aI4
aI4
aI4
aI4
aI4
aI4
aI4
aI4
aI4
aI4
aI4
aI4
aI4
aI4
aI4
aI4
aI4
aI4
aI4
aI4
aI4
aI4
aI4
aI4
aI4
aI4
aI4
aI4
aI4
aI4
aI4
aI4
aI4
aI4
aI4
aI4
aI4
aI4
aI4
aI4
aI4
aI4
aI4
aI4
aI4
aI4
aI4
aI4
aI4
aI4
aI4
aI4
aI4
aI4
aI4
aI4
aI4
aI4
aI4
aI4
aI4
aI4
aI4
aI4
aI4
aI4
aI4
aI4
aI4
aI4
aI4
aI4
aI4
aI4
aI4
aI4
aI4
aI4
aI4
aI4
aI4
aI4
aI4
aI4
aI4
aI4
aI4
aI4
aI4
aI4
aI4
aI4
aI4
aI4
aI4
aI4
aI4
aI4
aI4
aI4
aI4
aI4
aI4
aI4
aI4
aI4
aI4
aI4
aI4
aI4
aI4
aI4
aI4
aI4
aI4
aI4
aI4
aI4
aI4
aI4
aI4
aI4
aI4
aI4
aI4
aI4
aI4
aI4
aI4
aI4
aI4
aI4
aI4
aI4
aI4
aI4
aI4
aI4
aI4
aI4
aI4
aI4
aI4
aI4
aI4
aI4
aI4
aI4
aI4
aI4
aI4
aI4
aI4
aI4
aI4
aI4
aI4
aI4
aI4
aI4
aI4
aI4
aI4
aI4
aI4
aI4
aI4
aI4
aI4
aI4
aI4
aI4
aI4
aI4
aI4
aI4
aI4
aI4
aI4
aI4
aI4
aI4
aI4
aI4
aI4
aI4
aI4
aI4
aI4
aI4
aI4
aI4
aI4
aI4
aI4
aI4
aI4
aI4
aI4
aI4
aI4
aI4
aI4
aI4
aI4
aI4
aI4
aI4
aI4
aI4
aI4
aI4
aI4
aI4
aI4
aI4
aI4
aI4
aI4
aI4
aI4
aI4
aI4
aI4
aI4
aI4
aI4
aI4
aI4
aI4
aI4
aI4
aI4
aI4
aI4
aI4
aI4
aI4
aI4
aI4
aI4
aI4
aI4
aI4
aI4
aI4
aI4
aI4
aI4
aI4
aI4
aI4
aI4
aI4
aI4
aI4
aI4
aI4
aI4
aI4
aI4
aI4
aI4
aI4
aI4
aI4
aI4
aI4
aI4
aI4
aI4
aI4
aI4
aI4
aI4
aI4
aI4
aI4
aI4
aI4
aI4
aI4
aI4
aI4
aI4
aI4
aI4
aI4
aI4
aI4
aI4
aI4
aI4
aI4
aI4
aI4
aI4
aI4
aI4
aI4
aI4
aI4
aI4
aI4
aI4
aI4
aI4
aI4
aI4
aI4
aI4
aI4
aI4
aI4
aI4
aI4
aI4
aI4
aI4
aI4
aI4
aI4
aI4
aI4
aI4
aI4
aI4
aI4
aI4
aI4
aI4
aI4
aI4
aI4
aI4
aI4
aI4
aI4
aI4
aI4
aI4
aI4
aI4
aI4
aI4
aI4
aI4
aI4
aI4
aI4
aI4
aI4
aI4
aI4
aI4
aI4
aI4
aI4
aI4
aI4
aI4
aI4
aI4
aI4
aI4
aI4
aI4
aI4
aI4
aI4
aI4
aI4
aI4
aI4
aI4
aI4
aI4
aI4
aI4
aI4
aI4
aI4
aI4
aI4
aI4
aI4
aI4
aI4
aI4
aI4
aI4
aI4
aI4
aI4
aI4
aI4
aI4
aI4
aI4
aI4
aI4
aI4
aI4
aI4
aI4
aI4
aI4
aI4
aI4
aI4
aI4
aI4
aI4
aI4
aI4
aI4
aI4
aI4
aI4
aI4
aI4
aI4
aI4
aI4
aI4
aI4
aI4
aI4
aI4
aI4
aI4
aI4
aI4
aI4
aI4
aI4
aI4
aI4
aI4
aI4
aI4
aI4
aI4
aI4
aI4
aI4
aI4
aI4
aI4
aI4
aI4
aI4
aI4
aI4
aI4
aI4
aI4
aI4
aI4
aI4
aI4
aI4
aI4
aI4
aI4
aI4
aI4
aI4
aI4
aI4
aI4
aI4
aI4
aI4
aI4
aI4
aI4
aI4
aI4
aI4
aI4
aI4
aI4
aI4
aI4
aI4
aI4
aI4
aI4
aI4
aI4
aI4
aI4
asg18
S'1d9306b916562757669e6bbc0d1a8f213919ef33'
p249
sg20
F-1
sg21
S'/media/fgloblek/lacie'
p250
sg23
F1577894831.354094
sg24
I0
sg25
S'1d9306b916562757669e6bbc0d1a8f213919ef33'
p251
sg27
I01
sg28
I00
sg29
I00
sg30
(lp252
(dp253
S'send_stats'
p254
I01
sS'fails'
p255
I0
sS'verified'
p256
I00
sS'scrape_incomplete'
p257
I-1
sS'min_announce'
p258
NsS'scrape_downloaded'
p259
I-1
sS'url'
p260
S'http://bt2.t-ru.org/ann?magnet'
p261
sS'last_error'
p262
(dp263
S'category'
p264
S'system'
p265
sS'value'
p266
I0
ssS'fail_limit'
p267
I0
sS'next_announce'
p268
NsS'complete_sent'
p269
I00
sS'source'
p270
I4
sS'trackerid'
p271
S''
sS'start_sent'
p272
I00
sS'tier'
p273
I0
sS'scrape_complete'
p274
I-1
sS'message'
p275
S''
sS'updating'
p276
I00
sasg56
Nsg57
I00
sg58
F2
sg59
I00
sba(ideluge.core.torrentmanager
TorrentState
p277
(dp278
g7
F-1
sg8
S'/home/fgloblek/Downloads'
p279
sg10
I01
sg11
I-1
sg12
I00
sg13
I-1
sg14
I00
sg15
I22
sg16
(lp280
I4
asg18
S'd0365b9b8537a30778d8167ee85ca9d7629cdccc'
p281
sg20
F-1
sg21
S'/media/fgloblek/lacie'
p282
sg23
F1589018889.7294769
sg24
I0
sg25
S'd0365b9b8537a30778d8167ee85ca9d7629cdccc'
p283
sg27
I01
sg28
I00
sg29
I00
sg30
(lp284
sg56
Nsg57
I00
sg58
F2
sg59
I01
sba(ideluge.core.torrentmanager
TorrentState
p285
(dp286
g7
F-1
sg8
S'/home/fgloblek/Downloads'
p287
sg10
I01
sg11
I-1
sg12
I00
sg13
I-1
sg14
I00
sg15
I20
sg16
(lp288
I4
aI4
aI4
aI4
aI4
aI4
aI4
aI4
aI4
aI4
aI4
aI4
aI4
aI4
aI4
aI4
aI4
aI4
aI4
aI4
aI4
aI4
aI4
aI4
aI4
aI4
aI4
aI4
aI4
aI4
aI4
aI4
asg18
S'03715db36629ba465297c806380e23601b032eb5'
p289
sg20
F-1
sg21
S'/media/fgloblek/lacie'
p290
sg23
F1577894940.4105821
sg24
I254583274
sg25
S'03715db36629ba465297c806380e23601b032eb5'
p291
sg27
I01
sg28
I00
sg29
I00
sg30
(lp292
(dp293
S'send_stats'
p294
I01
sS'fails'
p295
I0
sS'verified'
p296
I00
sS'scrape_incomplete'
p297
I-1
sS'min_announce'
p298
NsS'scrape_downloaded'
p299
I-1
sS'url'
p300
S'http://bt4.t-ru.org/ann?magnet'
p301
sS'last_error'
p302
(dp303
S'category'
p304
S'system'
p305
sS'value'
p306
I0
ssS'fail_limit'
p307
I0
sS'next_announce'
p308
NsS'complete_sent'
p309
I00
sS'source'
p310
I4
sS'trackerid'
p311
S''
sS'start_sent'
p312
I00
sS'tier'
p313
I0
sS'scrape_complete'
p314
I-1
sS'message'
p315
S''
sS'updating'
p316
I00
sasg56
Nsg57
I00
sg58
F2
sg59
I01
sba(ideluge.core.torrentmanager
TorrentState
p317
(dp318
g7
F-1
sg8
S'/home/fgloblek/Downloads'
p319
sg10
I01
sg11
I-1
sg12
I00
sg13
I-1
sg14
I00
sg15
I19
sg16
(lp320
I4
aI4
aI4
aI4
aI4
aI4
aI4
aI4
aI4
aI4
aI4
aI4
aI4
aI4
aI4
aI4
aI4
aI4
aI4
aI4
aI4
aI4
aI4
aI4
aI4
aI4
aI4
aI4
aI4
aI4
aI4
aI4
aI4
aI4
aI4
aI4
aI4
aI4
aI4
aI4
aI4
aI4
aI4
aI4
aI4
aI4
aI4
aI4
aI4
aI4
aI4
aI4
aI4
aI4
aI4
aI4
aI4
aI4
aI4
aI4
aI4
aI4
aI4
aI4
aI4
aI4
aI4
aI4
aI4
aI4
aI4
asg18
S'28a5c07e0b9e6b866f84115010d40ddcf684fa5d'
p321
sg20
F-1
sg21
S'/media/fgloblek/lacie'
p322
sg23
F1577894784.615247
sg24
I0
sg25
S'28a5c07e0b9e6b866f84115010d40ddcf684fa5d'
p323
sg27
I01
sg28
I00
sg29
I00
sg30
(lp324
(dp325
S'send_stats'
p326
I01
sS'fails'
p327
I0
sS'verified'
p328
I00
sS'scrape_incomplete'
p329
I-1
sS'min_announce'
p330
NsS'scrape_downloaded'
p331
I-1
sS'url'
p332
S'http://bt3.t-ru.org/ann?magnet'
p333
sS'last_error'
p334
(dp335
S'category'
p336
S'system'
p337
sS'value'
p338
I0
ssS'fail_limit'
p339
I0
sS'next_announce'
p340
NsS'complete_sent'
p341
I00
sS'source'
p342
I4
sS'trackerid'
p343
S''
sS'start_sent'
p344
I00
sS'tier'
p345
I0
sS'scrape_complete'
p346
I-1
sS'message'
p347
S''
sS'updating'
p348
I00
sasg56
Nsg57
I00
sg58
F2
sg59
I01
sba(ideluge.core.torrentmanager
TorrentState
p349
(dp350
g7
I-1
sg8
S'/home/fgloblek/Downloads'
p351
sg10
I01
sg11
I-1
sg12
I00
sg13
I-1
sg14
I00
sg15
I18
sg16
(lp352
I4
aI4
aI4
aI4
aI4
aI4
aI4
aI4
aI4
aI4
aI4
aI4
aI4
aI4
aI4
aI7
aI4
aI4
aI4
aI4
aI4
aI4
aI4
aI4
aI4
aI4
aI4
aI4
aI4
aI4
aI4
aI4
aI4
aI4
aI4
aI4
aI4
aI4
aI4
aI4
aI4
aI4
aI4
aI4
aI4
aI4
aI4
aI4
aI4
aI4
aI4
aI4
aI4
aI4
aI4
aI4
aI4
aI4
aI4
aI4
aI4
aI4
aI4
aI4
aI4
aI4
aI4
aI4
aI4
aI4
aI4
aI4
aI4
aI4
aI4
aI4
aI4
aI4
aI4
aI4
aI4
aI4
aI4
aI4
aI4
aI4
aI4
aI4
aI4
aI4
aI4
aI4
aI4
aI4
aI4
aI4
aI4
aI4
aI4
aI4
aI4
aI4
aI4
aI4
aI4
aI4
aI4
aI4
aI4
aI4
aI4
aI4
aI4
aI4
aI4
aI4
aI4
aI4
aI4
aI4
aI4
aI4
aI4
aI4
aI4
aI4
aI4
aI4
aI7
aI4
aI4
aI4
aI4
aI4
aI4
aI4
aI4
aI4
aI4
aI4
aI4
aI4
aI4
aI4
aI4
aI4
aI4
aI7
aI4
aI4
aI4
aI4
aI4
aI4
aI4
aI4
aI4
aI4
aI4
aI4
aI4
aI4
aI4
aI4
aI4
aI4
aI4
aI4
aI4
aI4
aI4
aI4
aI4
aI4
aI4
aI4
aI4
aI4
aI4
aI4
aI4
aI4
aI4
aI4
aI4
aI4
aI4
aI4
aI4
aI4
aI4
aI4
aI4
aI4
aI4
aI4
aI4
aI4
aI4
aI4
aI4
aI4
aI4
aI4
aI4
aI4
aI4
aI4
aI4
aI4
aI4
aI4
aI4
aI4
aI4
aI4
aI4
aI4
aI4
aI4
aI4
aI4
aI4
aI4
aI4
aI4
aI4
aI4
aI4
aI4
aI4
aI4
aI4
aI4
aI4
aI4
aI4
aI4
aI4
aI7
aI4
aI4
aI4
aI4
aI4
aI4
aI4
aI4
aI4
aI4
aI4
aI4
aI4
aI4
aI7
aI4
aI4
aI4
aI4
aI4
aI4
aI4
aI4
aI4
aI4
aI4
aI4
aI4
aI4
aI4
aI4
aI7
aI7
aI4
aI7
aI4
aI4
aI7
aI4
aI4
aI4
aI4
aI4
aI4
aI7
aI7
aI4
aI4
aI7
aI4
aI4
aI4
aI4
aI4
aI4
aI4
aI4
aI4
aI4
aI4
aI4
aI4
aI4
aI4
aI4
aI4
aI4
aI4
aI4
aI4
aI4
aI4
aI4
aI4
aI4
aI4
aI4
aI4
aI4
aI4
aI4
aI4
aI4
aI4
aI4
aI4
aI4
aI4
aI4
aI4
aI4
aI4
aI4
aI4
aI4
aI4
aI4
aI4
aI4
aI4
aI4
aI4
aI4
aI4
aI4
aI4
aI4
aI4
aI4
aI4
aI4
aI4
aI4
aI4
aI4
aI4
aI4
aI4
aI4
aI4
aI4
aI4
aI4
aI4
aI4
aI4
aI4
aI4
aI4
aI4
aI4
aI4
aI4
aI4
aI4
aI4
aI4
aI4
aI4
aI4
aI4
aI4
aI4
aI4
aI4
aI4
aI4
aI4
aI4
aI4
aI4
aI4
aI4
aI4
aI4
aI4
aI4
aI4
aI7
aI4
aI4
aI4
aI4
aI4
aI4
aI4
aI7
aI4
aI4
aI4
aI4
aI4
aI4
aI4
aI4
aI4
aI4
aI4
aI4
aI4
aI4
aI4
aI4
aI4
aI7
aI4
aI4
aI7
aI4
aI7
aI7
aI4
aI7
aI4
aI4
aI4
aI4
aI4
aI4
aI4
aI4
aI4
aI4
aI4
aI4
aI4
aI4
aI4
aI4
aI4
aI7
aI4
aI4
aI4
aI4
aI4
aI4
aI4
aI4
aI4
aI4
aI4
aI4
aI4
aI7
aI4
aI4
aI4
aI4
aI7
aI7
aI4
aI4
aI7
aI7
aI7
aI7
aI7
aI7
aI7
aI4
aI7
aI4
aI7
aI7
aI7
aI7
aI7
aI7
aI7
aI7
aI7
aI7
aI7
aI7
aI7
aI7
aI7
aI4
aI7
aI7
aI7
aI7
aI4
aI4
aI7
aI7
aI7
aI7
aI7
aI7
aI7
aI7
aI7
aI7
aI7
aI7
aI7
aI7
aI7
aI7
aI7
aI7
aI4
aI7
aI7
aI7
aI7
aI7
aI7
aI7
aI7
aI7
aI7
aI7
aI7
aI4
aI7
aI7
aI7
aI7
aI7
aI7
aI7
aI7
aI7
aI7
aI4
aI7
aI7
aI7
aI7
aI7
aI7
aI7
aI7
aI7
aI7
aI7
aI7
aI7
aI7
aI7
aI7
aI7
aI7
aI7
aI4
aI7
aI7
aI7
aI7
aI7
aI4
aI7
aI7
aI7
aI7
aI7
aI7
aI7
aI7
aI7
aI4
aI4
aI7
aI7
aI7
aI7
aI7
aI4
aI4
aI7
aI7
aI7
aI7
aI4
aI7
aI4
aI7
aI7
aI4
aI7
aI7
aI7
aI7
aI4
aI4
aI7
aI7
aI4
aI4
aI7
aI7
aI7
aI4
aI4
aI4
aI4
aI4
aI4
aI4
aI7
aI7
aI4
aI7
aI4
aI4
aI7
aI7
aI4
aI7
aI4
aI7
aI7
aI7
aI4
aI7
aI7
aI7
aI7
aI7
aI7
aI4
aI7
aI7
aI7
aI7
aI4
aI4
aI7
aI7
aI4
aI4
aI7
aI4
aI7
aI4
aI7
aI7
aI4
aI7
aI7
aI7
aI4
aI4
aI4
aI7
aI4
aI7
aI7
aI7
aI4
aI4
aI7
aI4
aI4
aI7
aI7
aI7
aI7
aI4
aI7
aI7
aI4
aI7
aI7
aI7
aI4
aI4
aI7
aI7
aI4
aI7
aI7
aI7
aI4
aI7
aI7
aI7
aI4
aI7
aI4
aI4
aI4
aI7
aI4
aI4
aI7
aI7
aI7
aI7
aI4
aI4
aI4
aI4
aI7
aI4
aI4
aI7
aI4
aI7
aI4
aI7
aI4
aI4
aI4
aI7
aI7
aI4
aI7
aI7
aI4
aI4
aI4
aI4
aI4
aI4
aI7
aI4
aI4
aI7
aI7
aI7
aI7
aI7
aI4
aI4
aI4
aI4
aI7
aI7
aI4
aI4
aI7
aI7
aI7
aI4
aI4
aI4
aI7
aI4
aI4
aI7
aI7
aI7
aI7
aI7
aI4
aI7
aI7
aI4
aI4
aI4
aI7
aI7
aI7
aI7
aI7
aI4
aI7
aI7
aI4
aI4
aI7
aI4
aI7
aI4
aI7
aI7
aI7
aI4
aI4
aI4
aI7
aI4
aI7
aI4
aI4
aI7
aI4
aI4
aI4
aI4
aI4
aI7
aI7
aI7
aI4
aI7
aI4
aI4
aI7
aI4
aI7
aI4
aI4
aI7
aI7
aI4
aI4
aI4
aI4
aI4
aI7
aI4
aI7
aI7
aI4
aI4
aI4
aI4
aI4
aI7
aI7
aI4
aI4
aI4
aI4
aI4
aI7
aI4
aI4
aI7
aI7
aI7
aI4
aI4
aI7
aI4
aI4
aI7
aI4
aI4
aI4
aI4
aI4
aI4
aI4
aI4
aI4
aI7
aI4
aI4
aI4
aI7
aI4
aI7
aI7
aI7
aI7
aI7
aI4
aI4
aI4
aI4
aI4
aI7
aI7
aI4
aI4
aI7
aI7
aI4
aI4
aI4
aI7
aI7
aI7
aI7
aI7
aI7
aI4
aI4
aI7
aI4
aI4
aI4
aI4
aI4
aI4
aI4
aI7
aI4
aI7
aI4
aI7
aI4
aI7
aI4
aI4
aI7
aI7
aI4
aI7
aI4
aI4
aI4
aI7
aI4
aI4
aI4
aI4
aI7
aI4
aI7
aI4
aI7
aI4
aI4
aI4
aI7
aI4
aI4
aI4
aI4
aI4
aI4
aI4
aI4
aI4
aI4
aI4
aI7
aI4
aI7
aI4
aI4
aI7
aI4
aI7
aI4
aI4
aI4
aI4
aI7
aI4
aI7
aI7
aI7
aI4
aI4
aI7
aI7
aI4
aI4
aI7
aI4
aI4
aI4
aI7
aI7
aI4
aI7
aI7
aI4
aI7
aI4
aI4
aI4
aI4
aI4
aI4
aI4
aI7
aI7
aI4
aI7
aI4
aI4
aI4
aI4
aI4
aI4
aI4
aI7
aI7
aI4
aI4
aI4
aI4
aI4
aI7
aI4
aI4
aI4
aI4
aI4
aI4
aI4
aI4
aI7
aI4
aI4
aI7
aI4
aI4
aI4
aI4
aI7
aI7
aI4
aI7
aI4
aI4
aI4
aI4
aI7
aI4
aI4
aI7
aI4
aI4
aI4
aI7
aI7
aI4
aI4
aI4
aI4
aI4
aI4
aI4
aI4
aI7
aI4
aI4
aI4
aI4
aI4
aI7
aI4
aI4
aI7
aI4
aI4
aI4
aI4
aI4
aI7
aI4
aI7
aI4
aI7
aI4
aI7
aI4
aI4
aI7
aI4
aI4
aI4
aI4
aI7
aI7
aI4
aI4
aI4
aI4
aI4
aI4
aI4
aI4
aI4
aI4
aI4
aI7
aI4
aI7
aI4
aI4
aI4
aI4
aI4
aI7
aI4
aI4
aI4
aI7
aI4
aI4
aI4
aI7
aI4
aI7
aI4
aI4
aI4
aI4
aI4
aI4
aI4
aI4
aI7
aI4
aI4
aI4
aI4
aI4
aI4
aI4
aI4
aI4
aI4
aI4
aI4
aI4
aI4
aI4
aI4
aI7
aI4
aI4
aI4
aI4
aI4
aI4
aI7
aI7
aI4
aI4
aI4
aI7
aI4
aI4
aI4
aI4
aI4
aI4
aI4
aI4
aI7
aI7
aI4
aI4
aI7
aI4
aI4
aI4
aI4
aI4
aI4
aI4
aI4
aI4
aI7
aI4
aI4
aI4
aI4
aI4
aI4
aI4
aI4
aI4
aI4
aI4
aI4
aI7
aI4
aI7
aI4
aI4
aI4
aI4
aI7
aI4
aI4
aI4
aI7
aI4
aI4
aI4
aI4
aI4
aI4
aI4
aI4
aI4
aI4
aI4
aI4
aI7
aI4
aI4
aI4
aI4
aI4
aI4
aI4
aI4
aI4
aI4
aI4
aI4
aI4
aI4
aI4
aI4
aI4
aI4
aI4
aI4
aI4
aI4
aI7
aI4
aI4
aI4
aI4
aI4
aI4
aI4
aI7
aI4
aI4
aI4
aI4
aI4
aI4
aI7
aI4
aI4
aI4
aI4
aI4
aI4
aI4
aI4
aI4
aI7
aI4
aI4
aI4
aI4
aI4
aI4
aI4
aI4
aI4
aI4
aI4
aI4
aI4
aI7
aI4
aI4
aI4
aI4
aI4
aI4
aI4
aI4
aI4
aI4
aI4
aI4
aI4
aI4
aI4
aI4
aI4
aI4
aI4
aI4
aI4
aI4
aI4
aI4
aI4
aI4
aI4
aI4
aI4
aI4
aI4
aI4
aI4
aI4
aI4
aI4
aI4
aI4
aI4
aI4
aI4
aI4
aI4
aI4
aI4
aI4
aI4
aI4
aI4
aI4
aI4
aI4
aI4
aI4
aI4
aI4
aI4
aI4
aI4
aI4
aI4
aI4
aI4
aI4
aI4
aI4
aI4
aI4
aI4
aI4
aI4
aI4
aI4
aI4
aI4
aI4
aI4
aI4
aI4
aI4
aI4
aI4
aI4
aI4
aI4
aI4
aI4
aI4
aI4
aI4
aI4
aI4
aI4
aI4
aI4
aI4
aI4
aI4
aI4
aI4
aI4
aI4
aI4
aI4
aI4
aI4
aI4
aI4
aI4
aI4
aI4
aI4
aI4
aI7
aI4
aI4
aI4
aI4
aI4
aI4
aI4
aI4
aI4
aI4
aI4
aI4
aI4
aI4
aI4
aI4
aI4
aI4
aI4
aI7
aI4
aI4
aI4
aI4
aI4
aI4
aI4
aI4
aI4
aI4
aI7
aI4
aI4
aI4
aI4
aI4
aI4
aI7
aI4
aI4
aI4
aI4
aI4
aI7
aI4
aI4
aI4
aI4
aI4
aI4
aI4
aI4
aI4
aI4
aI4
aI4
aI4
aI4
aI4
aI4
aI4
aI4
aI4
aI4
aI4
aI4
aI4
aI4
aI4
aI4
aI4
aI4
aI4
aI4
aI4
aI4
aI4
aI4
aI4
aI4
aI4
aI4
aI4
aI4
aI4
aI4
aI4
aI4
aI4
aI4
aI4
aI4
aI4
aI4
aI4
aI4
aI4
aI4
aI4
aI4
aI4
aI4
aI4
aI4
aI4
aI4
aI4
aI4
aI4
aI4
aI4
aI4
aI4
aI4
aI4
aI4
aI4
aI4
aI4
aI4
aI4
aI4
aI4
aI4
aI4
aI4
aI4
aI4
aI4
aI4
aI4
aI4
aI4
aI4
aI4
aI4
aI4
aI7
aI4
aI4
aI4
aI4
aI4
aI4
aI4
aI4
aI4
aI4
aI4
aI4
aI4
aI4
aI4
aI4
aI4
aI4
aI7
aI4
aI4
aI4
aI4
aI4
aI4
aI4
aI4
aI4
aI4
aI4
aI4
aI4
aI4
aI4
aI4
aI4
aI4
aI4
aI4
aI4
aI4
aI4
aI4
aI4
aI4
aI4
aI4
aI4
aI4
aI4
aI7
aI4
aI4
aI4
aI4
aI4
aI4
aI4
aI4
aI4
aI4
aI4
aI4
aI4
aI4
aI4
aI4
aI4
aI4
aI4
aI4
aI4
aI4
aI4
aI4
aI4
aI4
aI4
aI4
aI4
aI4
aI4
aI4
aI4
aI4
aI4
aI4
aI4
aI4
aI4
aI4
aI4
aI4
aI4
aI4
aI4
aI4
aI4
aI4
aI4
aI4
aI4
aI4
aI4
aI4
aI4
aI4
aI4
aI4
aI4
aI4
aI4
aI4
aI4
aI7
aI4
aI4
aI4
aI4
aI4
aI4
aI4
aI4
aI4
aI4
aI4
aI4
aI4
aI4
aI4
aI4
aI4
aI4
aI4
aI4
aI4
aI4
aI4
aI4
aI7
aI4
aI4
aI4
aI4
aI4
aI4
aI4
aI4
aI4
aI4
aI4
aI4
aI4
aI4
aI7
aI4
aI4
aI4
aI4
aI4
aI4
aI4
aI4
aI4
aI4
aI4
aI4
aI4
aI4
aI4
aI7
aI4
aI4
aI4
aI4
aI4
aI4
aI4
aI4
aI4
aI4
aI4
aI4
aI4
aI4
aI4
aI4
aI7
aI4
aI4
aI4
aI7
aI4
aI4
aI4
aI4
aI4
aI4
aI4
aI7
aI4
aI4
aI4
aI4
aI4
aI4
aI4
aI4
aI4
aI4
aI4
aI4
aI4
aI7
aI4
aI4
aI4
aI4
aI4
aI4
aI4
aI4
aI7
aI4
aI4
aI4
aI4
aI4
aI4
aI4
aI4
aI4
aI4
aI4
aI4
aI4
aI4
aI4
aI4
aI4
aI4
aI4
aI7
aI4
aI4
aI4
aI4
aI4
aI4
aI4
aI4
aI4
aI4
aI4
aI4
aI4
aI4
aI4
aI4
aI4
aI4
aI4
aI4
aI4
aI4
aI4
aI4
aI4
aI7
aI4
aI4
aI4
aI4
aI4
aI4
aI4
aI4
aI4
aI4
aI4
aI4
aI4
aI4
aI4
aI4
aI4
aI4
aI4
aI4
aI4
aI4
aI4
aI4
aI4
aI4
aI4
aI4
aI4
aI4
aI4
aI4
aI4
aI4
aI4
aI4
aI4
aI4
aI4
aI4
aI4
aI4
aI4
aI4
aI4
aI4
aI4
aI4
aI4
aI4
aI4
aI4
aI4
aI4
aI4
aI4
aI4
aI4
aI4
aI4
aI4
aI4
aI4
aI4
aI4
aI4
aI4
aI4
aI4
aI4
aI4
aI4
aI4
aI4
aI4
aI4
aI4
aI4
aI4
aI4
aI4
aI4
aI4
aI4
aI4
aI4
aI4
aI4
aI4
aI4
aI4
aI4
aI4
aI4
aI4
aI4
aI4
aI4
aI4
aI4
aI4
aI4
aI4
aI4
aI4
aI4
aI4
aI4
aI4
aI4
aI4
aI4
aI4
aI4
aI4
aI4
aI4
aI4
aI4
aI4
aI4
aI4
aI4
aI4
aI4
aI4
aI4
aI4
aI4
aI4
aI7
aI4
aI4
aI4
aI4
aI4
aI4
aI4
aI4
aI4
aI4
aI4
aI4
aI4
aI4
aI4
aI4
aI4
aI4
aI4
aI4
aI4
aI7
aI4
aI4
aI4
aI4
aI4
aI4
aI4
aI4
aI4
aI4
aI4
aI4
aI4
aI4
aI4
aI4
aI4
aI4
aI4
aI4
aI4
aI4
aI4
aI4
aI4
aI4
aI4
aI4
aI4
aI4
aI4
aI4
aI4
aI4
aI4
aI4
aI4
aI4
aI4
aI4
aI4
aI4
aI4
aI4
aI4
aI4
aI4
aI4
aI4
aI4
aI4
aI4
aI4
aI4
aI4
aI4
aI4
aI4
aI4
aI4
aI4
aI4
aI4
aI4
aI4
aI4
aI4
aI4
aI4
aI4
aI4
aI4
aI4
aI4
aI4
aI4
aI4
aI4
aI4
aI4
aI4
aI4
aI4
aI4
aI4
aI4
aI4
aI4
aI4
aI4
aI4
aI4
aI4
aI4
aI4
aI4
aI4
aI4
aI4
aI4
aI4
aI4
aI4
aI4
aI4
aI4
aI4
aI4
aI4
aI4
aI4
aI4
aI4
aI4
aI4
aI4
aI4
aI4
aI4
aI4
aI4
aI4
aI4
aI4
aI4
aI4
aI4
aI4
aI4
aI4
aI4
aI4
aI4
aI4
aI4
aI4
aI4
aI4
aI4
aI4
aI4
aI4
aI4
aI4
aI4
aI4
aI4
aI4
aI4
aI4
aI4
aI4
aI7
aI4
aI4
aI4
aI4
aI4
aI4
aI4
aI4
aI4
aI4
aI4
aI4
aI4
aI4
aI4
aI4
aI4
aI4
aI4
aI4
aI4
aI4
aI4
aI4
aI4
aI4
aI4
aI4
aI4
aI4
aI4
aI7
aI4
aI4
aI4
aI4
aI4
aI4
aI4
aI4
aI4
aI4
aI4
aI4
aI4
aI4
aI4
aI4
aI4
aI4
aI4
aI4
aI4
aI4
aI4
aI4
aI4
aI4
aI4
aI4
aI4
aI4
aI4
aI4
aI4
aI4
aI4
aI4
aI4
aI4
aI4
aI4
aI4
aI4
aI4
aI4
aI4
aI4
aI4
aI4
aI4
aI4
aI4
aI4
aI4
aI4
aI4
aI4
aI4
aI4
aI4
aI4
aI4
aI4
aI4
aI4
aI4
aI4
aI4
aI4
aI4
aI4
aI4
aI4
aI4
aI4
aI4
aI4
aI4
aI4
aI4
aI4
aI4
aI4
aI4
aI4
aI4
aI4
aI4
aI4
aI4
aI4
aI4
aI4
aI4
aI4
aI4
aI7
aI4
aI4
aI4
aI4
aI4
aI4
aI4
aI4
aI4
aI4
aI4
aI4
aI4
aI4
aI4
aI4
aI4
aI4
aI4
aI4
aI4
aI4
aI4
aI4
aI4
aI4
aI4
aI4
aI4
aI4
aI4
aI4
aI7
aI4
aI4
aI4
aI4
aI4
aI4
aI4
aI4
aI4
aI4
aI4
aI4
aI4
aI4
aI4
aI4
aI4
aI4
aI4
aI4
aI4
aI4
aI4
aI4
aI4
aI4
aI4
aI4
aI4
aI4
aI4
aI4
aI4
aI4
aI4
aI4
aI4
aI4
aI4
aI4
aI4
aI4
aI4
aI4
aI4
aI4
aI4
aI4
aI4
aI4
aI4
aI4
aI4
aI4
aI4
aI4
aI4
aI4
aI4
aI4
aI4
aI4
aI4
aI4
aI4
aI4
aI4
aI4
aI4
aI4
aI4
aI4
aI4
aI4
aI4
aI4
aI4
aI4
aI4
aI4
aI4
aI4
aI7
aI4
aI7
aI4
aI4
aI4
aI4
aI4
aI4
aI4
aI4
aI4
aI4
aI4
aI4
aI4
aI4
aI4
aI7
aI4
aI4
aI4
aI4
aI4
aI4
aI4
aI4
aI4
aI4
aI4
aI4
aI4
aI4
aI4
aI4
aI4
aI4
aI4
aI4
aI4
aI4
aI4
aI4
aI4
aI4
aI4
aI7
aI4
aI4
aI4
aI4
aI4
aI4
aI4
aI4
aI4
aI4
aI4
aI4
aI4
aI4
aI4
aI4
aI4
aI4
aI4
aI4
aI4
aI4
aI4
aI4
aI4
aI4
aI4
aI4
aI4
aI4
aI4
aI4
aI7
aI4
aI4
aI4
aI4
aI4
aI4
aI4
aI4
aI4
aI4
aI4
aI4
aI4
aI4
aI4
aI4
aI4
aI4
aI4
aI4
aI4
aI4
aI4
aI4
aI4
aI4
aI4
aI4
aI4
aI4
aI4
aI4
aI4
aI4
aI4
aI7
aI4
aI4
aI4
aI4
aI4
aI4
aI4
aI4
aI4
aI4
aI4
aI4
aI4
aI4
aI4
aI4
aI4
aI4
aI4
aI4
aI4
aI4
aI4
aI4
aI4
aI4
aI4
aI4
aI4
aI4
aI4
aI4
aI4
aI4
aI4
aI4
aI4
aI4
aI4
aI4
aI4
aI4
aI4
aI4
aI4
aI4
aI4
aI4
aI4
aI4
aI4
aI4
aI7
aI4
aI4
aI4
aI4
aI4
aI4
aI4
aI4
aI4
aI4
aI4
aI4
aI4
aI4
aI4
aI4
aI4
aI4
aI4
aI4
aI4
aI4
aI4
aI4
aI4
aI4
aI4
aI4
aI4
aI4
aI4
aI4
aI4
aI4
aI4
aI4
aI4
aI4
aI4
aI4
aI4
aI4
aI4
aI4
aI4
aI4
aI4
aI4
aI4
aI4
aI4
aI4
aI4
aI4
aI4
aI4
aI4
aI4
aI4
aI4
aI4
aI4
aI4
aI4
aI4
aI4
aI4
aI4
aI4
aI4
aI4
aI4
aI4
aI4
aI4
aI4
aI4
aI4
aI4
aI4
aI4
aI4
aI4
aI7
aI4
aI4
aI4
aI4
aI4
aI4
aI4
aI4
aI4
aI4
aI4
aI4
aI4
aI4
aI4
aI4
aI4
aI4
aI4
aI4
aI4
aI4
aI4
aI4
aI4
aI4
aI4
aI4
aI4
aI4
aI4
aI4
aI4
aI4
aI4
aI4
aI7
aI4
aI4
aI4
aI4
aI4
aI4
aI4
aI4
aI4
aI4
aI4
aI4
aI4
aI4
aI4
aI4
aI4
aI4
aI7
aI4
aI4
aI4
aI4
aI4
aI4
aI4
aI4
aI4
aI4
aI4
aI4
aI4
aI4
aI4
aI4
aI4
aI4
aI4
aI4
aI4
aI4
aI4
aI4
aI4
aI4
aI4
aI4
aI4
aI4
aI4
aI4
aI4
aI4
aI4
aI4
aI4
aI4
aI4
aI4
aI4
aI4
aI4
aI4
aI4
aI4
aI4
aI4
aI4
aI4
aI4
aI4
aI4
aI4
aI4
aI4
aI4
aI4
aI7
aI4
aI4
aI4
aI4
aI4
aI4
aI4
aI4
aI4
aI4
aI4
aI4
aI4
aI4
aI4
aI4
aI4
aI4
aI7
aI4
aI4
aI4
aI4
aI4
aI4
aI4
aI4
aI7
aI4
aI4
aI4
aI4
aI4
aI4
aI4
aI4
aI4
aI4
aI4
aI4
aI4
aI4
aI4
aI7
aI4
aI4
aI4
aI4
aI4
aI4
aI4
aI4
aI4
aI4
aI4
aI4
aI4
aI4
aI4
aI4
aI4
aI4
aI4
aI4
aI4
aI4
aI4
aI4
aI4
aI4
aI4
aI4
aI4
aI4
aI4
aI4
aI4
aI4
aI7
aI4
aI4
aI4
aI7
aI4
aI4
aI4
aI4
aI4
aI7
aI4
aI4
aI4
aI7
aI4
aI4
aI4
aI4
aI4
aI4
aI4
aI4
aI4
aI4
aI4
aI4
aI4
aI4
aI4
aI4
aI4
aI4
aI4
aI4
aI4
aI4
aI4
aI4
aI4
aI4
aI4
aI4
aI4
aI4
aI4
aI4
aI4
aI4
aI4
aI4
aI4
aI4
aI4
aI4
aI4
aI4
aI7
aI4
aI4
aI4
aI4
aI4
aI4
aI4
aI4
aI4
aI4
aI4
aI4
aI4
aI4
aI4
aI4
aI4
aI4
aI4
aI4
aI4
aI4
aI4
aI4
aI4
aI4
aI4
aI4
aI4
aI4
aI7
aI4
aI4
aI7
aI4
aI4
aI7
aI4
aI4
aI4
aI4
aI4
aI4
aI4
aI4
aI4
aI4
aI4
aI4
aI4
aI7
aI4
aI4
aI4
aI4
aI4
aI4
aI7
aI7
aI4
aI4
aI4
aI4
aI4
aI4
aI4
aI4
aI4
aI4
aI4
aI4
aI4
aI7
aI4
aI4
aI4
aI4
aI4
aI4
aI4
aI4
aI4
aI4
aI4
aI4
aI4
aI4
aI4
aI7
aI4
aI4
aI4
aI4
aI4
aI4
aI4
aI4
aI4
aI7
aI4
aI4
aI4
aI4
aI4
aI7
aI4
aI4
aI4
aI4
aI4
aI4
aI4
aI4
aI4
aI4
aI4
aI4
aI7
aI4
aI4
aI4
aI4
aI4
aI4
aI4
aI4
aI4
aI7
aI4
aI4
aI4
aI4
aI4
aI4
aI4
aI4
aI4
aI4
aI4
aI4
aI4
aI4
aI7
aI4
aI4
aI4
aI4
aI4
aI4
aI4
aI7
aI4
aI4
aI4
aI4
aI4
aI7
aI4
aI4
aI4
aI4
aI4
aI4
aI4
aI4
aI4
aI4
aI4
aI4
aI4
aI7
aI4
aI4
aI4
aI4
aI4
aI7
aI4
aI4
aI4
aI4
aI4
aI7
aI4
aI4
aI4
aI4
aI4
aI4
aI4
aI7
aI4
aI4
aI4
aI4
aI4
aI4
aI4
aI4
aI4
aI7
aI4
aI4
aI4
aI4
aI4
aI4
aI4
aI4
aI4
aI4
aI4
aI4
aI4
aI7
aI4
aI4
aI7
aI4
aI4
aI4
aI4
aI4
aI4
aI4
aI4
aI4
aI4
aI4
aI7
aI4
aI4
aI4
aI4
aI4
aI4
aI4
aI4
aI4
aI4
aI4
aI4
aI4
aI4
aI7
aI4
aI4
aI4
aI4
aI4
aI7
aI4
aI4
aI4
aI4
aI7
aI4
aI4
aI4
aI4
aI4
aI4
aI4
aI7
aI4
aI4
aI4
aI4
aI4
aI4
aI4
aI7
aI4
aI4
aI4
aI4
aI4
aI4
aI7
aI4
aI4
aI4
aI4
aI7
aI4
aI4
aI4
aI4
aI7
aI4
aI4
aI4
aI4
aI4
aI7
aI4
aI4
aI4
aI4
aI4
aI7
aI7
aI4
aI4
aI4
aI7
aI4
aI4
aI4
aI4
aI4
aI4
aI4
aI4
aI4
aI7
aI4
aI4
aI4
aI4
aI4
aI4
aI4
aI4
aI4
aI4
aI7
aI4
aI4
aI7
aI7
aI4
aI4
aI4
aI4
aI7
aI4
aI4
aI4
aI4
aI4
aI4
aI4
aI4
aI7
aI4
aI4
aI7
aI4
aI4
aI4
aI4
aI4
aI4
aI4
aI4
aI4
aI4
aI7
aI4
aI4
aI4
aI4
aI7
aI4
aI4
aI4
aI4
aI4
aI4
aI4
aI4
aI7
aI4
aI4
aI4
aI4
aI4
aI4
aI7
aI4
aI4
aI4
aI4
aI4
aI4
aI4
aI4
aI4
aI4
aI4
aI7
aI4
aI4
aI4
aI4
aI4
aI4
aI4
aI4
aI4
aI4
aI4
aI4
aI4
aI4
aI4
aI4
aI4
aI4
aI7
aI4
aI4
aI4
aI4
aI4
aI4
aI4
aI4
aI4
aI4
aI4
aI4
aI4
aI4
aI4
aI4
aI4
aI4
aI4
aI4
aI4
aI4
aI4
aI4
aI4
aI7
aI4
aI4
aI7
aI4
aI4
aI4
aI4
aI4
aI4
aI7
aI4
aI4
aI4
aI4
aI4
aI7
aI4
aI4
aI4
aI4
aI7
aI7
aI4
aI4
aI7
aI4
aI4
aI4
aI4
aI4
aI4
aI4
aI4
aI4
aI7
aI4
aI7
aI4
aI4
aI4
aI7
aI7
aI7
aI7
aI4
aI7
aI4
aI4
aI4
aI4
aI4
aI4
aI4
aI7
aI7
aI7
aI4
aI7
aI4
aI4
aI7
aI4
aI7
aI4
aI4
aI4
aI7
aI4
aI7
aI4
aI4
aI4
aI4
aI4
aI4
aI7
aI4
aI4
aI4
aI7
aI4
aI4
aI4
aI4
aI4
aI4
aI4
aI4
aI4
aI4
aI4
aI4
aI4
aI4
aI7
aI4
aI4
aI4
aI4
aI4
aI4
aI7
aI4
aI4
aI4
aI4
aI4
aI4
aI4
aI7
aI7
aI7
aI4
aI4
aI4
aI4
aI7
aI4
aI4
aI4
aI4
aI4
aI4
aI4
aI7
aI4
aI4
aI4
aI4
aI7
aI7
aI4
aI4
aI7
aI4
aI4
aI4
aI4
aI4
aI4
aI7
aI4
aI4
aI4
aI4
aI4
aI4
aI4
aI4
aI4
aI4
aI7
aI4
aI4
aI4
aI4
aI4
aI4
aI4
aI7
aI4
aI4
aI4
aI7
aI4
aI4
aI7
aI7
aI4
aI4
aI4
aI4
aI4
aI7
aI4
aI4
aI7
aI4
aI4
aI4
aI7
aI4
aI4
aI4
aI4
aI4
aI4
aI7
aI4
aI4
aI4
aI4
aI4
aI4
aI4
aI4
aI4
aI4
aI4
aI4
aI4
aI7
aI7
aI4
aI7
aI4
aI4
aI4
aI4
aI4
aI4
aI4
aI4
aI4
aI4
aI4
aI7
aI4
aI4
aI7
aI4
aI7
aI4
aI4
aI7
aI4
aI7
aI4
aI4
aI4
aI4
aI4
aI4
aI7
aI4
aI4
aI4
aI4
aI4
aI4
aI4
aI7
aI4
aI4
aI4
aI4
aI7
aI7
aI4
aI4
aI7
aI7
aI4
aI4
aI4
aI7
aI4
aI7
aI4
aI4
aI4
aI4
aI4
aI7
aI4
aI4
aI7
aI4
aI7
aI7
aI7
aI7
aI4
aI4
aI4
aI7
aI4
aI7
aI4
aI7
aI4
aI4
aI4
aI4
aI4
aI4
aI4
aI4
aI4
aI4
aI4
aI4
aI4
aI4
aI4
aI4
aI4
aI4
aI4
aI4
aI4
aI4
aI4
aI4
aI7
aI4
aI4
aI7
aI4
aI4
aI4
aI4
aI4
aI4
aI4
aI4
aI7
aI7
aI4
aI4
aI7
aI4
aI4
aI4
aI4
aI4
aI4
aI4
aI4
aI7
aI4
aI4
aI4
aI4
aI4
aI4
aI4
aI4
aI7
aI4
aI7
aI4
aI4
aI4
aI4
aI4
aI4
aI4
aI4
aI4
aI4
aI4
aI4
aI4
aI7
aI4
aI4
aI4
aI7
aI4
aI4
aI7
aI4
aI4
aI4
aI4
aI4
aI4
aI7
aI7
aI7
aI4
aI4
aI7
aI7
aI7
aI4
aI4
aI4
aI4
aI4
aI4
aI4
aI7
aI4
aI4
aI7
aI4
aI4
aI4
aI4
aI4
aI7
aI4
aI4
aI4
aI7
aI4
aI7
aI4
aI4
aI4
aI4
aI4
aI7
aI4
aI4
aI4
aI7
aI4
aI4
aI4
aI7
aI4
aI4
aI4
aI4
aI4
aI7
aI4
aI4
aI4
aI4
aI4
aI4
aI7
aI7
aI4
aI4
aI4
aI4
aI4
aI4
aI7
aI7
aI4
aI4
aI4
aI4
aI4
aI4
aI4
aI4
aI4
aI4
aI4
aI7
aI4
aI4
aI4
aI4
aI4
aI4
aI4
aI4
aI7
aI4
aI4
aI4
aI4
aI4
aI4
aI4
aI4
aI4
aI7
aI4
aI4
aI4
aI7
aI7
aI4
aI4
aI4
aI7
aI4
aI4
aI4
aI4
aI4
aI4
aI4
aI7
aI4
aI4
aI4
aI4
aI4
aI7
aI4
aI4
aI4
aI7
aI7
aI4
aI4
aI4
aI4
aI4
aI4
aI4
aI4
aI4
aI4
aI4
aI4
aI7
aI4
aI4
aI4
aI4
aI7
aI4
aI7
aI4
aI4
aI4
aI4
aI4
aI4
aI4
aI4
aI4
aI4
aI4
aI7
aI4
aI4
aI7
aI4
aI4
aI4
aI4
aI4
aI4
aI4
aI4
aI4
aI4
aI4
aI4
aI4
aI4
aI4
aI4
aI7
aI4
aI4
aI7
aI7
aI4
aI4
aI4
aI4
aI4
aI4
aI4
aI4
aI4
aI7
aI7
aI4
aI7
aI4
aI4
aI4
aI4
aI4
aI4
aI4
aI4
aI4
aI4
aI4
aI4
aI4
aI7
aI4
aI4
aI4
aI4
aI4
aI4
aI4
aI7
aI4
aI4
aI7
aI7
aI4
aI4
aI4
aI4
aI4
aI4
aI4
aI7
aI4
aI4
aI4
aI7
aI4
aI4
aI4
aI4
aI4
aI4
aI4
aI4
aI4
aI4
aI4
aI4
aI4
aI4
aI4
aI4
aI4
aI4
aI4
aI4
aI4
aI4
aI4
aI4
aI4
aI4
aI4
aI4
aI4
aI4
aI4
aI4
aI4
aI4
aI4
aI4
aI4
aI4
aI4
aI4
aI4
aI4
aI4
aI4
aI4
aI4
aI7
aI7
aI4
aI7
aI4
aI4
aI4
aI7
aI4
aI4
aI4
aI4
aI4
aI4
aI4
aI4
aI4
aI4
aI4
aI4
aI4
aI4
aI4
aI4
aI4
aI7
aI4
aI4
aI4
aI4
aI7
aI4
aI4
aI4
aI4
aI4
aI4
aI4
aI4
aI4
aI4
aI4
aI4
aI4
aI4
aI4
aI4
aI7
aI4
aI4
aI7
aI4
aI4
aI4
aI7
aI4
aI4
aI4
aI4
aI7
aI4
aI4
aI4
aI4
aI4
aI4
aI4
aI4
aI4
aI4
aI7
aI4
aI4
aI4
aI4
aI4
aI4
aI4
aI4
aI4
aI7
aI4
aI4
aI4
aI4
aI7
aI4
aI7
aI4
aI4
aI4
aI4
aI4
aI4
aI4
aI4
aI4
aI4
aI4
aI4
aI4
aI4
aI4
aI4
aI4
aI4
aI4
aI4
aI7
aI4
aI4
aI4
aI4
aI4
aI4
aI4
aI4
aI4
aI4
aI4
aI4
aI4
aI4
aI4
aI4
aI4
aI4
aI4
aI4
aI4
aI4
aI4
aI4
aI7
aI4
aI4
aI4
aI4
aI7
aI4
aI4
aI7
aI4
aI4
aI4
aI4
aI4
aI4
aI4
aI7
aI4
aI4
aI4
aI4
aI4
aI4
aI4
aI4
aI4
aI4
aI4
aI4
aI4
aI4
aI4
aI4
aI4
aI4
aI4
aI4
aI4
aI4
aI7
aI4
aI4
aI4
aI4
aI4
aI4
aI4
aI4
aI4
aI4
aI4
aI7
aI4
aI4
aI4
aI4
aI4
aI4
aI4
aI4
aI4
aI4
aI4
aI4
aI4
aI4
aI4
aI4
aI7
aI4
aI4
aI4
aI4
aI4
aI4
aI4
aI4
aI4
aI4
aI4
aI4
aI4
aI4
aI4
aI4
aI4
aI4
aI4
aI4
aI4
aI4
aI4
aI4
aI4
aI4
aI4
aI4
aI4
aI4
aI4
aI4
aI4
aI4
aI7
aI4
aI4
aI4
aI7
aI4
aI4
aI4
aI4
aI4
aI7
aI4
aI7
aI4
aI4
aI4
aI4
aI4
aI4
aI4
aI4
aI4
aI4
aI4
aI4
aI7
aI4
aI4
aI4
aI4
aI4
aI4
aI4
aI4
aI4
aI7
aI4
aI4
aI4
aI4
aI4
aI4
aI4
aI4
aI4
aI4
aI4
aI4
aI4
aI4
aI7
aI4
aI4
aI4
aI4
aI4
aI4
aI4
aI4
aI4
aI4
aI4
aI4
aI7
aI4
aI4
aI4
aI4
aI4
aI4
aI4
aI4
aI4
aI4
aI4
aI4
aI4
aI4
aI4
aI4
aI4
aI4
aI4
aI4
aI4
aI4
aI7
aI4
aI4
aI4
aI4
aI4
aI4
aI4
aI4
aI4
aI4
aI7
aI4
aI4
aI4
aI4
aI4
aI4
aI4
aI4
aI4
aI7
aI4
aI4
aI4
aI4
aI4
aI4
aI7
aI4
aI4
aI4
aI4
aI4
aI4
aI4
aI4
aI4
aI4
aI4
aI4
aI4
aI4
aI4
aI4
aI4
aI4
aI4
aI4
aI4
aI4
aI4
aI4
aI4
aI4
aI4
aI4
aI4
aI4
aI4
aI4
aI4
aI4
aI4
aI4
aI4
aI7
aI4
aI4
aI4
aI4
aI4
aI4
aI4
aI4
aI4
aI4
aI4
aI4
aI4
aI7
aI4
aI4
aI4
aI4
aI7
aI4
aI4
aI4
aI4
aI4
aI4
aI4
aI4
aI4
aI4
aI4
aI4
aI4
aI4
aI4
aI4
aI4
aI4
aI4
aI4
aI4
aI4
aI4
aI4
aI4
aI4
aI4
aI4
aI4
aI4
aI4
aI7
aI4
aI4
aI4
aI4
aI4
aI4
aI4
aI4
aI4
aI4
aI4
aI4
aI7
aI4
aI4
aI4
aI4
aI4
aI4
aI4
aI4
aI4
aI4
aI4
aI4
aI7
aI4
aI4
aI4
aI4
aI4
aI4
aI4
aI4
aI4
aI4
aI4
aI4
aI4
aI4
aI4
aI4
aI4
aI4
aI4
aI4
aI4
aI4
aI4
aI4
aI4
aI4
aI4
aI4
aI4
aI4
aI4
aI4
aI4
aI4
aI4
aI4
aI4
aI4
aI4
aI4
aI4
aI4
aI4
aI4
aI4
aI4
aI4
aI4
aI4
aI4
aI4
aI4
aI4
aI4
aI4
aI4
aI7
aI4
aI4
aI4
aI4
aI4
aI4
aI4
aI4
aI4
aI4
aI4
aI4
aI4
aI4
aI4
aI4
aI4
aI4
aI4
aI4
aI4
aI4
aI4
aI4
aI4
aI4
aI4
aI4
aI4
aI4
aI4
aI7
aI4
aI4
aI4
aI7
aI4
aI4
aI4
aI4
aI4
aI4
aI4
aI4
aI4
aI4
aI4
aI7
aI4
aI4
aI4
aI4
aI4
aI4
aI4
aI4
aI4
aI4
aI4
aI4
aI4
aI4
aI4
aI4
aI4
aI4
aI4
aI4
aI4
aI4
aI4
aI4
aI4
aI4
aI7
aI4
aI4
aI4
aI4
aI4
aI4
aI4
aI4
aI4
aI4
aI4
aI4
aI4
aI4
aI4
aI4
aI4
aI4
aI4
aI4
aI4
aI4
aI4
aI4
aI4
aI4
aI4
aI4
aI4
aI4
aI4
aI4
aI4
aI4
aI4
aI4
aI4
aI4
aI4
aI4
aI4
aI4
aI4
aI4
aI4
aI4
aI4
aI4
aI4
aI4
aI4
aI4
aI4
aI4
aI4
aI4
aI4
aI4
aI4
aI4
aI4
aI4
aI4
aI4
aI4
aI4
aI4
aI4
aI4
aI4
aI4
aI4
aI4
aI4
aI4
aI4
aI4
aI7
aI4
aI4
aI4
aI4
aI4
aI4
aI4
aI4
aI4
aI4
aI4
aI4
aI4
aI4
aI4
aI4
aI4
aI4
aI4
aI4
aI4
aI4
aI7
aI4
aI4
aI4
aI4
aI4
aI4
aI4
aI4
aI4
aI4
aI4
aI4
aI4
aI4
aI4
aI4
aI4
aI4
aI4
aI4
aI4
aI7
aI4
aI4
aI4
aI4
aI4
aI4
aI4
aI4
aI4
aI4
aI4
aI4
aI4
aI4
aI4
aI4
aI4
aI4
aI7
aI4
aI4
aI4
aI4
aI4
aI4
aI4
aI4
aI4
aI4
aI4
aI4
aI4
aI4
aI4
aI4
aI4
aI4
aI4
aI4
aI7
aI4
aI4
aI4
aI4
aI4
aI4
aI4
aI4
aI4
aI4
aI4
aI4
aI4
aI4
aI4
aI4
aI4
aI4
aI4
aI4
aI4
aI4
aI4
aI4
aI4
aI4
aI4
aI4
aI4
aI4
aI4
aI4
aI4
aI4
aI4
aI4
aI4
aI4
aI4
aI4
aI4
aI4
aI4
aI4
aI4
aI4
aI4
aI4
aI4
aI4
aI4
aI4
aI4
aI4
aI4
aI4
aI4
aI4
aI4
aI4
aI4
aI4
aI4
aI4
aI4
aI4
aI7
aI4
aI4
aI4
aI4
aI4
aI4
aI4
aI4
aI4
aI4
aI4
aI4
aI4
aI4
aI4
aI4
aI4
aI4
aI4
aI4
aI4
aI4
aI4
aI4
aI4
aI4
aI4
aI4
aI4
aI4
aI4
aI4
aI4
aI4
aI4
aI4
aI4
aI4
aI4
aI4
aI4
aI4
aI4
aI4
aI4
aI4
aI4
aI4
aI4
aI4
aI4
aI4
aI4
aI4
aI4
aI4
aI4
aI4
aI4
aI4
aI4
aI7
aI4
aI4
aI4
aI4
aI4
aI4
aI4
aI4
aI4
aI4
aI7
aI4
aI4
aI7
aI4
aI4
aI4
aI4
aI4
aI4
aI4
aI4
aI4
aI4
aI4
aI4
aI4
aI4
aI4
aI4
aI4
aI4
aI4
aI4
aI4
aI7
aI4
aI4
aI4
aI4
aI4
aI4
aI4
aI4
aI4
aI7
aI4
aI4
aI4
aI4
aI4
aI4
aI4
aI4
aI4
aI4
aI4
aI4
aI4
aI4
aI4
aI4
aI4
aI4
aI4
aI4
aI4
aI4
aI4
aI4
aI7
aI4
aI4
aI4
aI4
aI4
aI4
aI4
aI4
aI4
aI4
aI4
aI4
aI4
aI4
aI4
aI4
aI4
aI4
aI4
aI4
aI4
aI4
aI4
aI4
aI4
aI4
aI4
aI4
aI4
aI4
aI4
aI4
aI4
aI4
aI4
aI4
aI4
aI4
aI4
aI4
aI4
aI4
aI4
aI4
aI4
aI4
aI4
aI4
aI4
aI7
aI4
aI4
aI4
aI4
aI4
aI4
aI4
aI4
aI4
aI4
aI4
aI4
aI4
aI4
aI4
aI4
aI4
aI4
aI4
aI4
aI4
aI4
aI4
aI4
aI4
aI4
aI4
aI4
aI4
aI4
aI4
aI4
aI4
aI4
aI4
aI4
aI4
aI4
aI4
aI4
aI4
aI4
aI4
aI4
aI4
aI4
aI4
aI4
aI7
aI4
aI4
aI4
aI4
aI7
aI4
aI7
aI4
aI4
aI4
aI4
aI4
aI4
aI4
aI4
aI4
aI4
aI4
aI4
aI4
aI4
aI4
aI4
aI4
aI4
aI4
aI4
aI4
aI4
aI4
aI4
aI4
aI4
aI7
aI4
aI4
aI4
aI4
aI4
aI4
aI4
aI4
aI4
aI4
aI4
aI4
aI4
aI4
aI4
aI4
aI4
aI4
aI4
aI7
aI4
aI4
aI4
aI4
aI4
aI4
aI4
aI4
aI4
aI4
aI4
aI4
aI4
aI4
aI4
aI4
aI4
aI4
aI4
aI4
aI4
aI4
aI4
aI4
aI7
aI4
aI4
aI4
aI4
aI4
aI4
aI4
aI4
aI4
aI4
aI4
aI7
aI4
aI4
aI4
aI4
aI4
aI4
aI4
aI7
aI4
aI4
aI4
aI4
aI4
aI4
aI4
aI7
aI4
aI4
aI4
aI4
aI4
aI4
aI4
aI4
aI4
aI4
aI4
aI4
aI4
aI4
aI4
aI4
aI4
aI7
aI4
aI4
aI4
aI4
aI4
aI4
aI4
aI4
aI7
aI4
aI4
aI4
aI4
aI4
aI4
aI4
aI4
aI4
aI4
aI4
aI4
aI4
aI4
aI4
aI4
aI4
aI4
aI4
aI4
aI4
aI4
aI4
aI7
aI4
aI4
aI4
aI4
aI4
aI4
aI4
aI4
aI4
aI4
aI4
aI4
aI4
aI4
aI4
aI4
aI4
aI4
aI4
aI4
aI4
aI4
aI4
aI4
aI4
aI4
aI4
aI4
aI4
aI4
aI4
aI4
aI7
aI4
aI4
aI4
aI4
aI4
aI4
aI4
aI4
aI4
aI4
aI4
aI4
aI4
aI4
aI4
aI4
aI4
aI4
aI4
aI4
aI4
aI4
aI4
aI4
aI4
aI4
aI4
aI4
aI4
aI4
aI4
aI4
aI4
aI4
aI4
aI4
aI4
aI4
aI4
aI4
aI4
aI4
aI4
aI4
aI4
aI4
aI4
aI4
aI4
aI4
aI4
aI7
aI4
aI4
aI4
aI4
aI4
aI4
aI4
aI4
aI4
aI4
aI4
aI4
aI4
aI4
aI4
aI4
aI4
aI4
aI4
aI4
aI4
aI4
aI4
aI4
aI4
aI4
aI4
aI4
aI4
aI4
aI4
aI4
aI4
aI4
aI4
aI4
aI4
aI4
aI4
aI4
aI4
aI7
aI4
aI4
aI4
aI4
aI4
aI4
aI4
aI4
aI4
aI4
aI4
aI4
aI7
aI4
aI4
aI4
aI4
aI4
aI7
aI4
aI4
aI4
aI4
aI4
aI4
aI4
aI4
aI4
aI4
aI4
aI4
aI7
aI4
aI4
aI4
aI4
aI4
aI4
aI4
aI4
aI4
aI4
aI4
aI4
aI4
aI4
aI4
aI4
aI4
aI4
aI4
aI4
aI4
aI4
aI7
aI4
aI7
aI4
aI4
aI4
aI4
aI4
aI4
aI7
aI4
aI4
aI4
aI4
aI4
aI4
aI7
aI4
aI4
aI4
aI4
aI4
aI4
aI4
aI4
aI4
aI4
aI4
aI4
aI4
aI4
aI7
aI4
aI4
aI4
aI4
aI4
aI4
aI4
aI4
aI4
aI4
aI4
aI4
aI4
aI4
aI4
aI4
aI4
aI4
aI4
aI4
aI4
aI4
aI4
aI4
aI4
aI4
aI4
aI4
aI7
aI4
aI4
aI4
aI4
aI4
aI4
aI4
aI4
aI4
aI4
aI4
aI4
aI4
aI4
aI4
aI7
aI4
aI4
aI7
aI4
aI4
aI4
aI4
aI4
aI4
aI7
aI4
aI4
aI4
aI4
aI4
aI4
aI4
aI4
aI4
aI4
aI4
aI4
aI4
aI4
aI4
aI4
aI4
aI4
aI4
aI4
aI4
aI4
aI4
aI7
aI4
aI4
aI4
aI4
aI4
aI4
aI7
aI4
aI4
aI7
aI4
aI7
aI4
aI4
aI4
aI4
aI4
aI4
aI4
aI4
aI4
aI4
aI7
aI4
aI4
aI7
aI4
aI4
aI4
aI4
aI4
aI4
aI4
aI7
aI4
aI4
aI4
aI4
aI4
aI4
aI4
aI4
aI4
aI4
aI4
aI4
aI4
aI7
aI4
aI4
aI4
aI7
aI4
aI4
aI7
aI4
aI4
aI4
aI4
aI7
aI4
aI4
aI4
aI7
aI4
aI4
aI7
aI4
aI4
aI7
aI4
aI4
aI4
aI4
aI4
aI4
aI4
aI4
aI4
aI4
aI4
aI4
aI4
aI4
aI7
aI4
aI7
aI7
aI4
aI7
aI4
aI4
aI4
aI4
aI4
aI7
aI4
aI7
aI4
aI4
aI4
aI4
aI4
aI7
aI4
aI4
aI4
aI7
aI4
aI4
aI4
aI4
aI4
aI4
aI4
aI7
aI4
aI4
aI4
aI4
aI4
aI4
aI4
aI4
aI4
aI4
aI4
aI4
aI4
aI7
aI4
aI4
aI4
aI4
aI4
aI4
aI4
aI7
aI4
aI7
aI7
aI4
aI4
aI4
aI4
aI4
aI4
aI4
aI4
aI7
aI4
aI4
aI4
aI7
aI4
aI4
aI4
aI7
aI4
aI7
aI4
aI4
aI4
aI4
aI4
aI4
aI4
aI7
aI4
aI7
aI4
aI4
aI4
aI4
aI4
aI4
aI4
aI4
aI4
aI4
aI4
aI4
aI4
aI7
aI4
aI4
aI4
aI4
aI4
aI4
aI4
aI4
aI4
aI4
aI4
aI4
aI4
aI4
aI4
aI4
aI4
aI4
aI4
aI4
aI4
aI4
aI4
aI7
aI4
aI4
aI4
aI4
aI4
aI7
aI4
aI4
aI4
aI4
aI4
aI4
aI4
aI4
aI4
aI7
aI4
aI4
aI4
aI4
aI4
aI7
aI7
aI7
aI4
aI4
aI4
aI4
aI4
aI4
aI4
aI7
aI4
aI4
aI4
aI4
aI4
aI4
aI4
aI4
aI4
aI7
aI4
aI4
aI4
aI4
aI4
aI7
aI4
aI4
aI4
aI4
aI4
aI4
aI4
aI7
aI4
aI7
aI4
aI4
aI4
aI4
aI4
aI4
aI4
aI4
aI7
aI7
aI4
aI4
aI4
aI7
aI4
aI4
aI7
aI4
aI4
aI4
aI4
aI7
aI4
aI4
aI7
aI4
aI4
aI4
aI4
aI4
aI4
aI4
aI4
aI4
aI4
aI4
aI4
aI4
aI4
aI7
aI4
aI4
aI7
aI7
aI4
aI7
aI4
aI4
aI4
aI7
aI4
aI4
aI7
aI4
aI4
aI4
aI4
aI4
aI4
aI4
aI4
aI4
aI7
aI4
aI4
aI4
aI7
aI4
aI4
aI4
aI7
aI7
aI7
aI4
aI4
aI4
aI4
aI4
aI4
aI7
aI4
aI7
aI4
aI4
aI4
aI4
aI4
aI4
aI4
aI4
aI4
aI4
aI4
aI4
aI4
aI7
aI4
aI4
aI4
aI4
aI4
aI4
aI4
aI4
aI4
aI7
aI7
aI4
aI7
aI4
aI4
aI7
aI4
aI4
aI7
aI4
aI4
aI4
aI4
aI4
aI4
aI7
aI4
aI7
aI4
aI4
aI4
aI4
aI4
aI4
aI4
aI4
aI4
aI4
aI4
aI4
aI7
aI4
aI4
aI4
aI7
aI7
aI4
aI4
aI4
aI4
aI4
aI4
aI4
aI4
aI4
aI4
aI4
aI4
aI4
aI4
aI4
aI4
aI4
aI7
aI4
aI7
aI4
aI7
aI7
aI4
aI4
aI4
aI4
aI4
aI4
aI7
aI4
aI4
aI4
aI7
aI4
aI7
aI4
aI7
aI4
aI4
aI4
aI4
aI4
aI4
aI7
aI4
aI4
aI4
aI7
aI7
aI4
aI4
aI4
aI4
aI4
aI4
aI4
aI4
aI4
aI4
aI4
aI4
aI4
aI7
aI4
aI4
aI4
aI4
aI4
aI4
aI4
aI7
aI4
aI4
aI4
aI4
aI4
aI4
aI4
aI7
aI4
aI4
aI4
aI4
aI4
aI7
aI4
aI7
aI4
aI7
aI4
aI4
aI4
aI4
aI4
aI4
aI4
aI4
aI4
aI4
aI4
aI4
aI4
aI7
aI7
aI4
aI7
aI4
aI4
aI4
aI4
aI7
aI4
aI4
aI4
aI4
aI4
aI7
aI7
aI4
aI4
aI4
aI4
aI4
aI4
aI4
aI7
aI4
aI4
aI7
aI4
aI4
aI4
aI4
aI4
aI4
aI4
aI4
aI4
aI4
aI4
aI7
aI4
aI4
aI4
aI4
aI4
aI4
aI4
aI4
aI4
aI4
aI4
aI4
aI4
aI4
aI4
aI4
aI4
aI4
aI7
aI7
aI4
aI7
aI4
aI7
aI4
aI7
aI4
aI4
aI4
aI4
aI4
aI4
aI4
aI7
aI4
aI4
aI4
aI4
aI4
aI7
aI4
aI4
aI4
aI4
aI4
aI7
aI7
aI4
aI4
aI4
aI7
aI4
aI4
aI4
aI4
aI4
aI4
aI7
aI7
aI4
aI4
aI7
aI4
aI4
aI4
aI7
aI4
aI4
aI4
aI7
aI4
aI4
aI4
aI4
aI4
aI4
aI4
aI7
aI4
aI4
aI4
aI4
aI4
aI4
aI4
aI4
aI4
aI4
aI4
aI7
aI7
aI4
aI4
aI4
aI4
aI7
aI4
aI4
aI7
aI7
aI4
aI4
aI4
aI4
aI7
aI4
aI4
aI4
aI4
aI4
aI4
aI4
aI7
aI4
aI4
aI4
aI7
aI4
aI4
aI7
aI4
aI4
aI7
aI4
aI7
aI4
aI7
aI4
aI4
aI7
aI4
aI7
aI4
aI4
aI4
aI4
aI4
aI4
aI4
aI7
aI4
aI4
aI4
aI4
aI4
aI4
aI4
aI4
aI7
aI4
aI4
aI4
aI4
aI4
aI4
aI4
aI4
aI7
aI7
aI4
aI4
aI4
aI4
aI4
aI7
aI4
aI7
aI7
aI4
aI4
aI4
aI4
aI4
aI7
aI7
aI4
aI4
aI4
aI4
aI4
aI4
aI4
aI4
aI7
aI4
aI7
aI4
aI4
aI4
aI4
aI7
aI4
aI4
aI4
aI4
aI4
aI4
aI4
aI4
aI4
aI4
aI4
aI7
aI4
aI4
aI4
aI7
aI4
aI7
aI4
aI4
aI4
aI4
aI7
aI4
aI4
aI7
aI7
aI4
aI7
aI7
aI4
aI4
aI4
aI4
aI4
aI7
aI4
aI4
aI4
aI7
aI4
aI4
aI7
aI4
aI4
aI4
aI4
aI7
aI4
aI7
aI4
aI4
aI7
aI4
aI4
aI4
aI4
aI4
aI7
aI4
aI4
aI4
aI4
aI4
aI7
aI4
aI7
aI4
aI4
aI4
aI4
aI4
aI4
aI7
aI4
aI4
aI4
aI7
aI4
aI7
aI4
aI4
aI4
aI4
aI4
aI4
aI4
aI4
aI4
aI7
aI7
aI4
aI4
aI4
aI4
aI4
aI4
aI4
aI7
aI4
aI4
aI4
aI4
aI4
aI4
aI4
aI4
aI7
aI4
aI4
aI4
aI4
aI4
aI4
aI4
aI4
aI7
aI4
aI7
aI4
aI4
aI4
aI7
aI4
aI4
aI4
aI4
aI4
aI4
aI7
aI4
aI4
aI4
aI4
aI7
aI4
aI4
aI7
aI4
aI7
aI4
aI4
aI7
aI7
aI4
aI4
aI4
aI4
aI4
aI4
aI4
aI7
aI4
aI4
aI4
aI4
aI4
aI4
aI4
aI4
aI7
aI4
aI4
aI4
aI4
aI4
aI7
aI4
aI4
aI4
aI4
aI4
aI4
aI4
aI4
aI4
aI7
aI4
aI4
aI7
aI4
aI4
aI4
aI7
aI7
aI7
aI4
aI4
aI4
aI7
aI4
aI4
aI4
aI4
aI4
aI4
aI4
aI4
aI4
aI7
aI4
aI4
aI7
aI7
aI4
aI4
aI4
aI7
aI4
aI7
aI4
aI4
aI4
aI4
aI4
aI4
aI4
aI4
aI7
aI4
aI4
aI4
aI4
aI4
aI4
aI4
aI7
aI4
aI4
aI4
aI7
aI4
aI4
aI4
aI4
aI4
aI4
aI4
aI4
aI7
aI4
aI4
aI4
aI4
aI4
aI4
aI7
aI4
aI4
aI7
aI4
aI4
aI7
aI4
aI4
aI4
aI7
aI4
aI7
aI4
aI4
aI4
aI4
aI7
aI4
aI7
aI4
aI4
aI7
aI4
aI4
aI7
aI4
aI4
aI4
aI4
aI4
aI4
aI4
aI4
aI4
aI4
aI4
aI4
aI4
aI4
aI4
aI4
aI4
aI4
aI4
aI4
aI4
aI4
aI4
aI4
aI4
aI4
aI4
aI4
aI7
aI4
aI4
aI4
aI4
aI7
aI4
aI4
aI4
aI7
aI4
aI4
aI4
aI4
aI4
aI4
aI4
aI7
aI4
aI4
aI4
aI7
aI4
aI4
aI4
aI4
aI7
aI7
aI4
aI4
aI4
aI4
aI7
aI4
aI4
aI7
aI4
aI7
aI4
aI4
aI4
aI7
aI7
aI4
aI4
aI7
aI4
aI4
aI7
aI7
aI4
aI4
aI4
aI4
aI7
aI4
aI4
aI7
aI4
aI4
aI4
aI4
aI4
aI4
aI4
aI4
aI4
aI4
aI4
aI7
aI7
aI4
aI7
aI4
aI4
aI4
aI4
aI4
aI4
aI4
aI4
aI4
aI4
aI7
aI7
aI4
aI4
aI4
aI7
aI4
aI4
aI4
aI4
aI4
aI4
aI4
aI4
aI4
aI7
aI4
aI4
aI4
aI4
aI4
aI4
aI4
aI4
aI4
aI7
aI7
aI4
aI4
aI4
aI7
aI4
aI4
aI4
aI4
aI4
aI4
aI4
aI4
aI4
aI7
aI4
aI4
aI4
aI4
aI4
aI4
aI4
aI4
aI4
aI4
aI4
aI7
aI4
aI4
aI4
aI4
aI4
aI7
aI4
aI4
aI4
aI4
aI4
aI4
aI4
aI4
aI4
aI7
aI4
aI4
aI4
aI7
aI4
aI7
aI4
aI4
aI7
aI4
aI4
aI4
aI4
aI4
aI4
aI4
aI4
aI7
aI4
aI4
aI7
aI4
aI4
aI4
aI4
aI7
aI4
aI4
aI4
aI4
aI4
aI4
aI7
aI4
aI4
aI4
aI4
aI4
aI4
aI4
aI4
aI4
aI4
aI7
aI4
aI4
aI7
aI4
aI4
aI4
aI4
aI7
aI4
aI4
aI4
aI7
aI4
aI4
aI4
aI7
aI4
aI4
aI7
aI4
aI4
aI4
aI4
aI4
aI4
aI4
aI4
aI4
aI4
aI4
aI4
aI7
aI4
aI7
aI4
aI4
aI4
aI4
aI4
aI4
aI4
aI4
aI4
aI4
aI4
aI4
aI4
aI7
aI4
aI4
aI4
aI4
aI4
aI4
aI4
aI4
aI4
aI4
aI4
aI4
aI4
aI4
aI4
aI4
aI4
aI4
aI4
aI4
aI4
aI4
aI4
aI4
aI4
aI7
aI4
aI7
aI4
aI7
aI4
aI4
aI4
aI4
aI4
aI4
aI4
aI4
aI4
aI4
aI4
aI4
aI7
aI4
aI7
aI4
aI4
aI4
aI4
aI4
aI4
aI4
aI4
aI4
aI4
aI4
aI4
aI4
aI7
aI4
aI4
aI4
aI4
aI4
aI4
aI4
aI7
aI4
aI4
aI4
aI4
aI4
aI4
aI4
aI4
aI4
aI4
aI4
aI4
aI4
aI4
aI4
aI4
aI4
aI4
aI4
aI4
aI4
aI4
aI4
aI4
aI4
aI4
aI4
aI7
aI4
aI4
aI7
aI7
aI7
aI4
aI4
aI4
aI4
aI4
aI7
aI4
aI4
aI7
aI4
aI4
aI4
aI4
aI4
aI4
aI4
aI4
aI4
aI4
aI4
aI7
aI4
aI7
aI4
aI4
aI4
aI4
aI4
aI4
aI4
aI7
aI4
aI4
aI4
aI4
aI4
aI4
aI4
aI4
aI4
aI4
aI4
aI4
aI4
aI4
aI4
aI4
aI4
aI4
aI7
aI4
aI4
aI4
aI4
aI4
aI4
aI4
aI7
aI4
aI7
aI4
aI4
aI4
aI4
aI4
aI4
aI4
aI7
aI4
aI4
aI4
aI4
aI4
aI4
aI4
aI7
aI4
aI4
aI4
aI4
aI7
aI4
aI4
aI4
aI4
aI4
aI4
aI4
aI4
aI4
aI4
aI4
aI4
aI4
aI4
aI4
aI4
aI4
aI4
aI4
aI4
aI4
aI4
aI4
aI4
aI7
aI4
aI4
aI4
aI4
aI4
aI4
aI4
aI4
aI4
aI4
aI4
aI4
aI7
aI4
aI7
aI7
aI4
aI4
aI4
aI4
aI4
aI4
aI4
aI4
aI4
aI4
aI4
aI4
aI7
aI4
aI4
aI4
aI4
aI4
aI4
aI4
aI4
aI4
aI4
aI4
aI4
aI4
aI4
aI4
aI4
aI4
aI4
aI4
aI4
aI4
aI4
aI4
aI4
aI4
aI4
aI4
aI4
aI7
aI4
aI4
aI4
aI4
aI4
aI4
aI4
aI4
aI4
aI4
aI4
aI4
aI4
aI4
aI4
aI4
aI4
aI4
aI7
aI4
aI4
aI4
aI4
aI4
aI4
aI4
aI4
aI4
aI4
aI4
aI4
aI4
aI4
aI4
aI4
aI7
aI4
aI4
aI4
aI4
aI4
aI4
aI4
aI4
aI4
aI4
aI4
aI4
aI4
aI4
aI4
aI7
aI4
aI4
aI4
aI4
aI4
aI4
aI7
aI4
aI4
aI4
aI4
aI4
aI4
aI4
aI4
aI4
aI4
aI4
aI4
aI4
aI4
aI4
aI4
aI4
aI4
aI4
aI4
aI4
aI4
aI4
aI4
aI4
aI4
aI4
aI4
aI7
aI4
aI4
aI4
aI4
aI7
aI4
aI4
aI4
aI4
aI4
aI4
aI4
aI7
aI4
aI4
aI4
aI7
aI4
aI4
aI4
aI4
aI4
aI4
aI4
aI4
aI4
aI7
aI4
aI4
aI4
aI4
aI4
aI4
aI4
aI4
aI4
aI4
aI4
aI4
aI4
aI4
aI4
aI4
aI4
aI4
aI4
aI4
aI4
aI4
aI7
aI4
aI4
aI4
aI4
aI4
aI7
aI4
aI4
aI4
aI4
aI4
aI4
aI4
aI4
aI4
aI4
aI4
aI4
aI4
aI4
aI4
aI4
aI4
aI4
aI4
aI4
aI4
aI4
aI4
aI7
aI7
aI4
aI4
aI4
aI4
aI4
aI4
aI4
aI4
aI4
aI7
aI4
aI4
aI7
aI4
aI4
aI4
aI4
aI4
aI4
aI4
aI4
aI4
aI4
aI4
aI4
aI4
aI4
aI4
aI4
aI4
aI4
aI4
aI4
aI4
aI4
aI4
aI4
aI4
aI4
aI4
aI4
aI4
aI4
aI4
aI4
aI4
aI4
aI4
aI4
aI4
aI4
aI4
aI4
aI7
aI4
aI4
aI4
aI4
aI4
aI7
aI4
aI4
aI4
aI4
aI4
aI7
aI4
aI4
aI4
aI4
aI4
aI4
aI4
aI4
aI4
aI4
aI4
aI4
aI4
aI4
aI4
aI4
aI4
aI4
aI4
aI4
aI7
aI4
aI4
aI4
aI4
aI4
aI4
aI4
aI4
aI4
aI4
aI4
aI4
aI4
aI4
aI4
aI4
aI4
aI4
aI4
aI4
aI4
aI4
aI4
aI4
aI4
aI4
aI4
aI4
aI4
aI4
aI4
aI4
aI4
aI4
aI4
aI7
aI4
aI4
aI4
aI4
aI4
aI4
aI4
aI4
aI4
aI4
aI4
aI4
aI4
aI4
aI4
aI4
aI4
aI4
aI4
aI4
aI7
aI4
aI4
aI4
aI4
aI4
aI4
aI4
aI4
aI4
aI4
aI4
aI4
aI4
aI4
aI4
aI4
aI4
aI4
aI4
aI4
aI4
aI4
aI4
aI4
aI4
aI4
aI4
aI4
aI4
aI4
aI4
aI4
aI4
aI4
aI4
aI4
aI4
aI4
aI4
aI4
aI4
aI4
aI4
aI4
aI4
aI4
aI4
aI4
aI4
aI4
aI4
aI4
aI7
aI4
aI4
aI4
aI4
aI4
aI4
aI4
aI4
aI4
aI4
aI4
aI4
aI4
aI4
aI4
aI4
aI4
aI4
aI4
aI4
aI4
aI4
aI4
aI4
aI4
aI4
aI7
aI4
aI4
aI4
aI4
aI4
aI4
aI7
aI4
aI7
aI4
aI4
aI4
aI4
aI4
aI4
aI4
aI4
aI4
aI4
aI4
aI4
aI4
aI4
aI4
aI4
aI4
aI4
aI4
aI4
aI4
aI4
aI4
aI4
aI4
aI4
aI4
aI4
aI4
aI4
aI4
aI4
aI7
aI4
aI4
aI4
aI4
aI4
aI4
aI4
aI4
aI4
aI4
aI4
aI4
aI4
aI4
aI4
aI4
aI4
aI4
aI4
aI4
aI4
aI4
aI7
aI4
aI4
aI4
aI4
aI4
aI4
aI4
aI7
aI4
aI4
aI7
aI4
aI4
aI4
aI4
aI4
aI4
aI4
aI4
aI4
aI4
aI4
aI4
aI4
aI4
aI4
aI4
aI4
aI4
aI4
aI4
aI4
aI4
aI4
aI4
aI4
aI4
aI4
aI4
aI4
aI4
aI4
aI4
aI4
aI7
aI7
aI7
aI4
aI4
aI4
aI4
aI4
aI4
aI4
aI4
aI4
aI4
aI4
aI7
aI4
aI4
aI4
aI4
aI4
aI4
aI4
aI4
aI4
aI4
aI4
aI4
aI4
aI4
aI4
aI4
aI4
aI7
aI4
aI4
aI7
aI4
aI4
aI4
aI4
aI4
aI4
aI4
aI4
aI4
aI4
aI4
aI4
aI7
aI4
aI4
aI4
aI4
aI4
aI4
aI7
aI4
aI4
aI7
aI4
aI4
aI4
aI4
aI4
aI4
aI4
aI4
aI4
aI4
aI4
aI4
aI4
aI4
aI4
aI4
aI4
aI4
aI4
aI4
aI4
aI4
aI4
aI4
aI4
aI4
aI4
aI4
aI4
aI4
aI4
aI4
aI4
aI4
aI4
aI4
aI7
aI7
aI4
aI4
aI7
aI4
aI4
aI4
aI4
aI7
aI4
aI4
aI7
aI4
aI7
aI4
aI4
aI4
aI4
aI4
aI4
aI4
aI4
aI4
aI4
aI4
aI4
aI7
aI4
aI4
aI4
aI4
aI4
aI4
aI4
aI4
aI4
aI4
aI4
aI4
aI4
aI4
aI4
aI4
aI4
aI4
aI4
aI4
aI4
aI4
aI4
aI4
aI4
aI4
aI4
aI7
aI4
aI4
aI4
aI4
aI7
aI4
aI4
aI4
aI4
aI4
aI4
aI4
aI4
aI4
aI4
aI4
aI4
aI4
aI4
aI4
aI4
aI4
aI7
aI4
aI4
aI4
aI4
aI4
aI4
aI4
aI4
aI4
aI4
aI4
aI4
aI4
aI4
aI4
aI4
aI4
aI4
aI4
aI4
aI4
aI4
aI4
aI4
aI4
aI4
aI4
aI4
aI4
aI4
aI4
aI4
aI4
aI4
aI4
aI4
aI4
aI4
aI4
aI4
aI4
aI4
aI4
aI4
aI4
aI4
aI4
aI7
aI4
aI4
aI4
aI4
aI4
aI4
aI4
aI4
aI4
aI4
aI4
aI4
aI4
aI4
aI4
aI4
aI4
aI4
aI4
aI7
aI4
aI4
aI4
aI4
aI4
aI4
aI4
aI4
aI4
aI4
aI4
aI4
aI4
aI4
aI4
aI4
aI4
aI4
aI4
aI4
aI4
aI4
aI4
aI4
aI4
aI4
aI4
aI4
aI4
aI4
aI4
aI4
aI4
aI4
aI4
aI4
aI4
aI4
aI4
aI4
aI4
aI4
aI4
aI4
aI4
aI4
aI4
aI4
aI4
aI4
aI4
aI4
aI4
aI4
aI4
aI4
aI4
aI4
aI4
aI4
aI4
aI4
aI4
aI4
aI4
aI4
aI4
aI7
aI4
aI4
aI4
aI4
aI4
aI4
aI4
aI4
aI4
aI4
aI4
aI4
aI4
aI4
aI4
aI4
aI4
aI4
aI4
aI4
aI4
aI7
aI4
aI4
aI4
aI4
aI4
aI4
aI4
aI4
aI4
aI4
aI4
aI4
aI4
aI4
aI4
aI4
aI4
aI4
aI4
aI4
aI4
aI4
aI4
aI4
aI4
aI7
aI4
aI4
aI4
aI4
aI4
aI4
aI4
aI4
aI4
aI4
aI4
aI4
aI4
aI4
aI4
aI7
aI4
aI4
aI4
aI4
aI4
aI4
aI4
aI4
aI4
aI4
aI4
aI4
aI4
aI4
aI4
aI4
aI4
aI4
aI4
aI7
aI4
aI4
aI4
aI4
aI4
aI4
aI4
aI4
aI4
aI4
aI4
aI4
aI4
aI4
aI4
aI4
aI4
aI4
aI4
aI4
aI4
aI4
aI4
aI4
aI4
aI4
aI4
aI4
aI4
aI4
aI4
aI4
aI4
aI4
aI4
aI4
aI4
aI4
aI4
aI4
aI4
aI4
aI4
aI4
aI4
aI4
aI4
aI4
aI4
aI4
aI4
aI4
aI4
aI4
aI4
aI4
aI4
aI4
aI4
aI4
aI4
aI4
aI4
aI4
aI4
aI4
aI4
aI4
aI4
aI4
aI4
aI4
aI4
aI4
aI4
aI4
aI4
aI4
aI4
aI4
aI4
aI4
aI4
aI4
aI4
aI4
aI4
aI4
aI4
aI4
aI4
aI4
aI4
aI4
aI4
aI4
aI4
aI4
aI4
aI4
aI4
aI4
aI4
aI4
aI4
aI4
aI4
aI4
aI4
aI4
aI4
aI4
aI4
aI4
aI4
aI4
aI4
aI4
aI4
aI4
aI4
aI4
aI4
aI4
aI4
aI4
aI4
aI4
aI4
aI4
aI4
aI4
aI4
aI4
aI4
aI4
aI4
aI4
aI4
aI4
aI4
aI4
aI4
aI4
aI4
aI4
aI4
aI4
aI4
aI4
aI4
aI4
aI4
aI4
aI4
aI4
aI4
aI4
aI4
aI4
aI4
aI4
aI4
aI4
aI4
aI4
aI4
aI4
aI4
aI4
aI4
aI4
aI7
aI4
aI4
aI4
aI4
aI4
aI4
aI4
aI4
aI7
aI7
aI4
aI4
aI4
aI4
aI4
aI4
aI4
aI4
aI4
aI4
aI4
aI4
aI4
aI4
aI4
aI4
aI4
aI4
aI4
aI4
aI4
aI4
aI4
aI4
aI4
aI4
aI4
aI4
aI4
aI4
aI4
aI4
aI4
aI4
aI4
aI4
aI4
aI4
aI4
aI4
aI4
aI4
aI4
aI4
aI7
aI4
aI4
aI4
aI4
aI4
aI4
aI4
aI4
aI4
aI4
aI4
aI4
aI4
aI4
aI4
aI4
aI4
aI4
aI4
aI4
aI4
aI4
aI4
aI4
aI4
aI4
aI4
aI4
aI4
aI4
aI4
aI4
aI4
aI4
aI4
aI4
aI4
aI4
aI4
aI4
aI4
aI4
aI4
aI4
aI4
aI4
aI4
aI4
aI4
aI4
aI4
aI4
aI4
aI4
aI4
aI4
aI4
aI4
aI4
aI4
aI4
aI4
aI4
aI4
aI4
aI4
aI4
aI4
aI4
aI4
aI4
aI4
aI4
aI4
aI4
aI4
aI4
aI4
aI4
aI4
aI4
aI4
aI4
aI4
aI4
aI4
aI4
aI4
aI4
aI4
aI4
aI4
aI4
aI4
aI4
aI4
aI4
aI4
aI4
aI4
aI4
aI4
aI4
aI4
aI4
aI4
aI4
aI4
aI4
aI4
aI4
aI4
aI4
aI4
aI4
aI4
aI4
aI4
aI4
aI4
aI4
aI4
aI4
aI4
aI4
aI4
aI4
aI4
aI4
aI4
aI4
aI7
aI4
aI4
aI4
aI4
aI4
aI4
aI4
aI4
aI4
aI4
aI4
aI4
aI4
aI4
aI4
aI4
aI4
aI4
aI4
aI4
aI4
aI4
aI4
aI4
aI4
aI4
aI4
aI4
aI4
aI4
aI4
aI4
aI4
aI4
aI4
aI4
aI4
aI4
aI4
aI4
aI4
aI4
aI4
aI4
aI4
aI4
aI4
aI4
aI4
aI4
aI4
aI4
aI4
aI4
aI4
aI4
aI4
aI4
aI4
aI4
aI4
aI4
aI4
aI4
aI4
aI4
aI7
aI4
aI4
aI4
aI4
aI4
aI4
aI4
aI4
aI4
aI4
aI4
aI4
aI4
aI4
aI4
aI4
aI4
aI4
aI4
aI4
aI4
aI4
aI4
aI4
aI4
aI4
aI4
aI4
aI4
aI4
aI4
aI4
aI4
aI4
aI4
aI4
aI4
aI4
aI4
aI4
aI4
aI4
aI4
aI4
aI4
aI4
aI4
aI4
aI4
aI4
aI4
aI4
aI4
aI4
aI4
aI4
aI4
aI4
aI4
aI4
aI4
aI4
aI4
aI4
aI4
aI4
aI4
aI4
aI4
aI4
aI4
aI4
aI4
aI4
aI4
aI4
aI4
aI4
aI4
aI4
aI4
aI4
aI4
aI4
aI4
aI4
aI4
aI4
aI4
aI4
aI4
aI4
aI4
aI4
aI4
aI4
aI4
aI4
aI4
aI4
aI4
aI4
aI4
aI4
aI4
aI4
aI7
aI4
aI4
aI4
aI4
aI4
aI4
aI4
aI4
aI4
aI4
aI4
aI4
aI4
aI4
aI4
aI4
aI4
aI4
aI4
aI4
aI4
aI4
aI4
aI4
aI4
aI4
aI4
aI4
aI4
aI4
aI4
aI4
aI4
aI4
aI4
aI4
aI4
aI4
aI4
aI4
aI4
aI4
aI4
aI4
aI4
aI4
aI4
aI4
aI4
aI4
aI4
aI4
aI4
aI4
aI4
aI4
aI4
aI7
aI4
aI4
aI4
aI4
aI4
aI4
aI4
aI4
aI4
aI4
aI4
aI4
aI4
aI4
aI4
aI4
aI4
aI4
aI4
aI4
aI4
aI4
aI4
aI4
aI4
aI4
aI4
aI4
aI4
aI4
aI4
aI4
aI4
aI4
aI4
aI4
aI4
aI4
aI4
aI4
aI4
aI4
aI4
aI4
aI4
aI4
aI4
aI4
aI4
aI4
aI4
aI4
aI4
aI4
aI4
aI4
aI4
aI4
aI4
aI4
aI4
aI4
aI4
aI4
aI4
aI4
aI4
aI4
aI4
aI4
aI4
aI4
aI4
aI4
aI4
aI7
aI4
aI4
aI4
aI4
aI4
aI4
aI4
aI4
aI4
aI4
aI4
aI4
aI4
aI4
aI4
aI4
aI4
aI4
aI4
aI4
aI4
aI4
aI4
aI4
aI4
aI4
aI4
aI4
aI4
aI4
aI4
aI4
aI4
aI4
aI4
aI4
aI4
aI4
aI4
aI4
aI4
aI4
aI4
aI4
aI4
aI4
aI4
aI4
aI4
aI4
aI4
aI4
aI4
aI4
aI4
aI4
aI4
aI4
aI4
aI4
aI4
aI4
aI4
aI4
aI4
aI4
aI4
aI4
aI4
aI7
aI4
aI4
aI4
aI4
aI4
aI4
aI4
aI4
aI4
aI4
aI4
aI4
aI4
aI4
aI4
aI4
aI4
aI4
aI4
aI4
aI4
aI4
aI4
aI4
aI4
aI4
aI4
aI4
aI4
aI4
aI4
aI4
aI4
aI4
aI4
aI4
aI4
aI4
aI4
aI4
aI4
aI4
aI4
aI4
aI4
aI4
aI4
aI4
aI4
aI4
aI4
aI4
aI4
aI4
aI4
aI4
aI4
aI4
aI4
aI4
aI4
aI4
aI7
aI4
aI4
aI4
aI4
aI4
aI4
aI4
aI4
aI4
aI4
aI4
aI4
aI4
aI4
aI4
aI4
aI4
aI4
aI4
aI4
aI4
aI4
aI4
aI4
aI4
aI4
aI4
aI4
aI4
aI4
aI7
aI4
aI4
aI4
aI4
aI4
aI4
aI4
aI4
aI4
aI4
aI4
aI7
aI4
aI4
aI4
aI4
aI7
aI4
aI4
aI4
aI4
aI4
aI4
aI4
aI4
aI4
aI4
aI4
aI4
aI4
aI4
aI4
aI4
aI4
aI4
aI4
aI4
aI4
aI4
aI4
aI4
aI4
aI4
aI4
aI4
aI4
aI4
aI4
aI4
aI4
aI4
aI4
aI4
aI4
aI4
asg18
S'2214c087968baf40e3dd18748eb339515502377a'
p353
sg20
F-1
sg21
S'/media/fgloblek/lacie'
p354
sg23
F1587649311.6340699
sg24
I945495
sg25
S'2214c087968baf40e3dd18748eb339515502377a'
p355
sg27
I01
sg28
I00
sg29
I00
sg30
(lp356
(dp357
S'send_stats'
p358
I01
sS'fails'
p359
I0
sS'verified'
p360
I00
sS'scrape_incomplete'
p361
I-1
sS'min_announce'
p362
NsS'source'
p363
I4
sS'url'
p364
S'http://bt4.t-ru.org/ann?magnet'
p365
sS'last_error'
p366
(dp367
S'category'
p368
S'system'
p369
sS'value'
p370
I0
ssS'fail_limit'
p371
I0
sS'next_announce'
p372
NsS'complete_sent'
p373
I00
sS'scrape_downloaded'
p374
I-1
sS'trackerid'
p375
S''
sS'start_sent'
p376
I00
sS'tier'
p377
I0
sS'scrape_complete'
p378
I-1
sS'message'
p379
S''
sS'updating'
p380
I00
sasg56
Nsg57
I00
sg58
F2
sg59
I01
sba(ideluge.core.torrentmanager
TorrentState
p381
(dp382
g7
F-1
sg8
S'/home/fgloblek/Downloads'
p383
sg10
I00
sg11
I-1
sg12
I00
sg13
I-1
sg14
I00
sg15
I28
sg16
(lp384
I4
aI4
aI4
aI4
aI4
aI4
aI4
aI4
aI4
aI4
aI4
aI4
aI4
aI4
aI4
aI4
aI4
aI4
aI4
aI4
aI4
aI4
aI4
aI4
aI4
aI4
aI4
aI4
aI4
aI4
aI4
aI4
aI4
aI4
aI4
aI4
aI4
aI4
aI4
aI4
aI4
aI4
aI4
aI4
aI4
aI4
aI4
aI4
aI4
aI4
aI4
aI4
aI4
aI4
aI4
aI4
aI4
aI4
aI4
aI4
aI4
aI4
aI4
aI4
aI4
aI4
aI4
aI4
aI4
aI4
aI4
aI4
aI4
aI4
aI4
aI4
aI4
aI4
aI4
aI4
aI4
aI4
aI4
aI4
aI4
aI4
aI4
aI4
aI4
aI4
aI4
aI4
aI4
aI4
aI4
aI4
aI4
aI4
aI4
aI4
aI4
aI4
aI4
aI4
aI4
aI4
aI4
aI4
aI4
aI4
aI4
aI4
aI4
aI4
aI4
aI4
aI4
aI4
aI4
aI4
aI4
aI4
aI4
aI4
aI4
aI4
aI4
aI4
aI4
aI4
aI4
aI4
aI4
aI4
aI4
aI4
aI4
aI4
aI4
aI4
aI4
aI4
aI4
aI4
aI4
aI4
aI4
aI4
aI4
aI4
aI4
aI4
aI4
aI4
aI4
aI4
aI4
aI4
aI4
aI4
aI4
aI4
aI4
aI4
aI4
aI4
aI4
aI4
aI4
aI4
aI4
aI4
aI4
aI4
aI4
aI4
aI4
aI4
aI4
aI4
aI4
aI4
aI4
aI4
aI4
aI4
aI4
aI4
aI4
aI4
aI4
aI4
aI4
aI4
aI4
aI4
aI4
aI4
aI4
aI4
aI4
aI4
aI4
aI4
aI4
aI4
aI4
aI4
aI4
aI4
aI4
aI4
aI4
aI4
aI4
aI4
aI4
aI4
aI4
aI4
aI4
aI4
aI4
aI4
aI4
aI4
aI4
asg18
S'62bc12e227fbfd05133e2f45bc9177ef117f845d'
p385
sg20
F-1
sg21
S'/media/fgloblek/lacie'
p386
sg23
F1601654878.1714029
sg24
I0
sg25
S'62bc12e227fbfd05133e2f45bc9177ef117f845d'
p387
sg27
I01
sg28
I00
sg29
I00
sg30
(lp388
(dp389
S'send_stats'
p390
I01
sS'fails'
p391
I0
sS'verified'
p392
I00
sS'scrape_incomplete'
p393
I-1
sS'min_announce'
p394
NsS'scrape_downloaded'
p395
I-1
sS'url'
p396
S'udp://tracker.openbittorrent.com:80'
p397
sS'last_error'
p398
(dp399
S'category'
p400
S'system'
p401
sS'value'
p402
I0
ssS'fail_limit'
p403
I0
sS'next_announce'
p404
NsS'complete_sent'
p405
I00
sS'source'
p406
I4
sS'trackerid'
p407
S''
sS'start_sent'
p408
I00
sS'tier'
p409
I0
sS'scrape_complete'
p410
I-1
sS'message'
p411
S''
sS'updating'
p412
I00
sa(dp413
S'send_stats'
p414
I01
sS'fails'
p415
I0
sS'verified'
p416
I00
sS'scrape_incomplete'
p417
I-1
sS'min_announce'
p418
NsS'scrape_downloaded'
p419
I-1
sS'url'
p420
S'udp://tracker.opentrackr.org:1337/announce'
p421
sS'last_error'
p422
(dp423
S'category'
p424
S'system'
p425
sS'value'
p426
I0
ssS'fail_limit'
p427
I0
sS'next_announce'
p428
NsS'complete_sent'
p429
I00
sS'source'
p430
I4
sS'trackerid'
p431
S''
sS'start_sent'
p432
I00
sS'tier'
p433
I1
sS'scrape_complete'
p434
I-1
sS'message'
p435
S''
sS'updating'
p436
I00
sasg56
Nsg57
I00
sg58
F2
sg59
I00
sba(ideluge.core.torrentmanager
TorrentState
p437
(dp438
g7
F-1
sg8
S'/home/fgloblek/Downloads'
p439
sg10
I00
sg11
I-1
sg12
I00
sg13
I-1
sg14
I00
sg15
I29
sg16
(lp440
I4
aI4
aI4
aI4
aI4
aI4
aI4
aI4
aI4
aI4
aI4
aI4
aI4
aI4
aI4
aI4
aI4
aI4
aI4
aI4
aI4
aI4
aI4
aI4
aI4
aI4
aI4
aI4
aI4
aI4
aI4
aI4
aI4
aI4
aI4
aI4
aI4
aI4
aI4
aI4
aI4
aI4
aI4
aI4
aI4
aI4
aI4
aI4
aI4
aI4
aI4
aI4
aI4
aI4
aI4
aI4
aI4
aI4
aI4
aI4
aI4
aI4
aI4
aI4
aI4
aI4
aI4
aI4
aI4
aI4
aI4
aI4
aI4
aI4
aI4
aI4
aI4
aI4
aI4
aI4
aI4
aI4
aI4
aI4
aI4
aI4
aI4
aI4
aI4
aI4
aI4
aI4
aI4
aI4
aI4
aI4
aI4
aI4
aI4
aI4
aI4
aI4
aI4
aI4
aI4
aI4
aI4
aI4
aI4
aI4
aI4
aI4
aI4
aI4
aI4
aI4
aI4
aI4
aI4
aI4
aI4
aI4
aI4
aI4
aI4
aI4
aI4
aI4
aI4
aI4
aI4
aI4
aI4
aI4
aI4
aI4
aI4
aI4
aI4
aI4
aI4
aI4
aI4
aI4
aI4
aI4
aI4
aI4
aI4
aI4
aI4
aI4
aI4
aI4
aI4
aI4
aI4
aI4
aI4
aI4
aI4
aI4
aI4
aI4
aI4
aI4
aI4
aI4
aI4
aI4
aI4
aI4
aI4
aI4
aI4
aI4
aI4
aI4
aI4
aI4
aI4
aI4
aI4
aI4
aI4
aI4
aI4
aI4
aI4
aI4
aI4
aI4
aI4
aI4
aI4
aI4
aI4
aI4
aI4
aI4
aI4
aI4
aI4
aI4
aI4
aI4
aI4
aI4
aI4
aI4
aI4
aI4
aI4
aI4
aI4
aI4
aI4
aI4
aI4
aI4
aI4
aI4
aI4
aI4
aI4
aI4
aI4
aI4
aI4
aI4
aI4
aI4
aI4
aI4
aI4
aI4
aI4
aI4
aI4
aI4
aI4
aI4
aI4
aI4
aI4
aI4
aI4
aI4
aI4
aI4
aI4
aI4
aI4
aI4
aI4
aI4
aI4
aI4
aI4
aI4
aI4
aI4
aI4
aI4
aI4
aI4
aI4
aI4
aI4
aI4
aI4
aI4
aI4
aI4
aI4
aI4
aI4
aI4
aI4
aI4
aI4
aI4
aI4
aI4
aI4
aI4
aI4
aI4
aI4
aI4
aI4
aI4
aI4
aI4
asg18
S'a51ad04028005df5074de69e8facd9fed72fcc69'
p441
sg20
F-1
sg21
S'/media/fgloblek/lacie'
p442
sg23
F1601653161.8440609
sg24
I0
sg25
S'a51ad04028005df5074de69e8facd9fed72fcc69'
p443
sg27
I01
sg28
I00
sg29
I00
sg30
(lp444
(dp445
S'send_stats'
p446
I01
sS'fails'
p447
I0
sS'verified'
p448
I00
sS'scrape_incomplete'
p449
I-1
sS'min_announce'
p450
NsS'scrape_downloaded'
p451
I-1
sS'url'
p452
S'udp://tracker.openbittorrent.com:80'
p453
sS'last_error'
p454
(dp455
S'category'
p456
S'system'
p457
sS'value'
p458
I0
ssS'fail_limit'
p459
I0
sS'next_announce'
p460
NsS'complete_sent'
p461
I00
sS'source'
p462
I4
sS'trackerid'
p463
S''
sS'start_sent'
p464
I00
sS'tier'
p465
I0
sS'scrape_complete'
p466
I-1
sS'message'
p467
S''
sS'updating'
p468
I00
sa(dp469
S'send_stats'
p470
I01
sS'fails'
p471
I0
sS'verified'
p472
I00
sS'scrape_incomplete'
p473
I-1
sS'min_announce'
p474
NsS'scrape_downloaded'
p475
I-1
sS'url'
p476
S'udp://tracker.opentrackr.org:1337/announce'
p477
sS'last_error'
p478
(dp479
S'category'
p480
S'system'
p481
sS'value'
p482
I0
ssS'fail_limit'
p483
I0
sS'next_announce'
p484
NsS'complete_sent'
p485
I00
sS'source'
p486
I4
sS'trackerid'
p487
S''
sS'start_sent'
p488
I00
sS'tier'
p489
I1
sS'scrape_complete'
p490
I-1
sS'message'
p491
S''
sS'updating'
p492
I00
sasg56
Nsg57
I00
sg58
F2
sg59
I00
sba(ideluge.core.torrentmanager
TorrentState
p493
(dp494
g7
F-1
sg8
S'/home/fgloblek/Downloads'
p495
sg10
I01
sg11
I-1
sg12
I00
sg13
I-1
sg14
I00
sg15
I31
sg16
(lp496
sg18
S'774f6c1613994d83f6d4e37a4518723b0df8bd30'
p497
sg20
F-1
sg21
S'/media/fgloblek/lacie'
p498
sg23
F1594367610.3789871
sg24
I0
sg25
S'774f6c1613994d83f6d4e37a4518723b0df8bd30'
p499
sg27
I01
sg28
I00
sg29
I00
sg30
(lp500
(dp501
S'send_stats'
p502
I01
sS'fails'
p503
I0
sS'verified'
p504
I00
sS'scrape_incomplete'
p505
I-1
sS'min_announce'
p506
NsS'scrape_downloaded'
p507
I-1
sS'url'
p508
S'udp://tracker.openbittorrent.com:80'
p509
sS'last_error'
p510
(dp511
S'category'
p512
S'system'
p513
sS'value'
p514
I0
ssS'fail_limit'
p515
I0
sS'next_announce'
p516
NsS'complete_sent'
p517
I00
sS'source'
p518
I4
sS'trackerid'
p519
S''
sS'start_sent'
p520
I00
sS'tier'
p521
I0
sS'scrape_complete'
p522
I-1
sS'message'
p523
S''
sS'updating'
p524
I00
sa(dp525
S'send_stats'
p526
I01
sS'fails'
p527
I0
sS'verified'
p528
I00
sS'scrape_incomplete'
p529
I-1
sS'min_announce'
p530
NsS'scrape_downloaded'
p531
I-1
sS'url'
p532
S'udp://tracker.opentrackr.org:1337/announce'
p533
sS'last_error'
p534
(dp535
S'category'
p536
S'system'
p537
sS'value'
p538
I0
ssS'fail_limit'
p539
I0
sS'next_announce'
p540
NsS'complete_sent'
p541
I00
sS'source'
p542
I4
sS'trackerid'
p543
S''
sS'start_sent'
p544
I00
sS'tier'
p545
I1
sS'scrape_complete'
p546
I-1
sS'message'
p547
S''
sS'updating'
p548
I00
sasg56
S'magnet:?xt=urn:btih:774f6c1613994d83f6d4e37a4518723b0df8bd30&dn=BehrouzBoochaniNoFriendButTheMountainsZiyad&tr=udp://tracker.openbittorrent.com:80&tr=udp://tracker.opentrackr.org:1337/announce'
p549
sg57
I00
sg58
F2
sg59
I00
sba(ideluge.core.torrentmanager
TorrentState
p550
(dp551
g7
I-1
sg8
S'/home/fgloblek/Downloads'
p552
sg10
I01
sg11
I-1
sg12
I00
sg13
I-1
sg14
I00
sg15
I38
sg16
(lp553
I1
aI1
aI1
aI1
aI1
aI1
aI1
aI1
aI1
aI1
aI1
aI1
aI1
aI1
aI1
aI1
aI1
aI1
aI1
aI1
aI1
aI1
aI1
aI1
aI1
aI1
aI1
aI1
aI1
aI1
aI1
aI1
aI1
aI1
aI1
aI1
aI1
aI1
aI1
aI1
aI1
aI1
aI1
aI1
aI1
aI1
aI1
aI1
aI1
aI1
aI1
aI1
aI1
aI1
aI1
aI1
aI1
aI1
aI1
aI1
aI1
aI1
aI1
aI1
aI1
aI1
aI1
aI1
aI1
aI1
aI1
aI1
aI1
aI1
aI1
aI1
aI1
aI1
aI1
aI1
aI1
aI1
aI1
aI1
aI1
aI1
aI1
asg18
S'thuleanperspective_201911_archive-1.torrent'
p554
sg20
F-1
sg21
S'/media/fgloblek/lacie'
p555
sg23
F1587405952.728174
sg24
I0
sg25
S'7c9b49bef49382c7c62987173c1d5b4f80b2cf06'
p556
sg27
I01
sg28
I00
sg29
I00
sg30
(lp557
(dp558
S'send_stats'
p559
I01
sS'fails'
p560
I0
sS'verified'
p561
I00
sS'scrape_incomplete'
p562
I-1
sS'min_announce'
p563
NsS'scrape_downloaded'
p564
I-1
sS'url'
p565
S'http://bt1.archive.org:6969/announce'
p566
sS'last_error'
p567
(dp568
S'category'
p569
S'system'
p570
sS'value'
p571
I0
ssS'fail_limit'
p572
I0
sS'next_announce'
p573
NsS'complete_sent'
p574
I00
sS'source'
p575
I1
sS'trackerid'
p576
S''
sS'start_sent'
p577
I00
sS'tier'
p578
I0
sS'scrape_complete'
p579
I-1
sS'message'
p580
S''
sS'updating'
p581
I00
sa(dp582
S'send_stats'
p583
I01
sS'fails'
p584
I0
sS'verified'
p585
I00
sS'scrape_incomplete'
p586
I-1
sS'min_announce'
p587
NsS'scrape_downloaded'
p588
I-1
sS'url'
p589
S'http://bt2.archive.org:6969/announce'
p590
sS'last_error'
p591
(dp592
S'category'
p593
S'system'
p594
sS'value'
p595
I0
ssS'fail_limit'
p596
I0
sS'next_announce'
p597
NsS'complete_sent'
p598
I00
sS'source'
p599
I1
sS'trackerid'
p600
S''
sS'start_sent'
p601
I00
sS'tier'
p602
I1
sS'scrape_complete'
p603
I-1
sS'message'
p604
S''
sS'updating'
p605
I00
sasg56
Nsg57
I00
sg58
F2
sg59
I00
sba(ideluge.core.torrentmanager
TorrentState
p606
(dp607
g7
F-1
sg8
S'/home/fgloblek/Downloads'
p608
sg10
I01
sg11
I-1
sg12
I00
sg13
I-1
sg14
I00
sg15
I35
sg16
(lp609
I1
aI0
aI1
aI0
aI1
aI0
aI1
aI0
aI1
aI0
aI1
aI0
aI1
aI0
aI1
aI0
aI1
aI0
aI1
aI0
aI1
aI0
aI1
aI0
aI1
aI0
aI1
aI0
aI1
aI0
aI1
aI0
aI1
aI0
aI1
aI0
aI1
aI0
aI1
aI0
aI1
aI0
aI1
aI0
aI1
aI0
aI1
aI0
aI1
aI0
aI1
aI0
aI1
aI0
aI1
aI0
aI1
aI0
aI1
aI0
aI1
aI0
aI1
aI0
aI1
aI0
aI1
aI0
aI1
aI0
aI1
aI0
aI1
aI0
aI1
aI0
aI1
aI0
aI1
aI0
aI1
aI0
aI1
aI0
aI1
aI0
aI1
aI0
aI1
aI0
aI1
aI0
aI1
aI0
aI1
aI0
aI1
aI0
aI1
aI0
aI1
aI0
aI1
aI0
aI1
aI0
aI1
aI0
aI1
aI0
aI1
aI0
aI1
aI0
aI1
aI0
aI1
aI0
aI1
aI0
aI1
aI0
aI1
aI0
aI1
aI0
aI1
aI0
aI1
aI0
aI1
aI0
aI1
aI0
aI1
aI0
aI1
aI0
aI1
aI0
aI1
aI0
aI1
aI0
aI1
aI0
aI1
aI0
aI1
aI0
aI1
aI0
aI1
aI0
aI1
aI0
aI1
aI0
aI1
aI0
aI1
aI0
aI1
aI0
aI1
aI0
aI1
aI0
aI1
aI0
aI1
aI0
aI1
aI0
aI1
aI0
aI1
aI0
aI1
aI0
aI1
aI0
aI1
aI0
aI1
aI0
aI1
aI0
aI1
aI0
aI1
aI0
aI1
aI0
aI1
aI0
aI1
aI0
aI1
aI0
aI1
aI0
aI1
aI0
aI1
aI0
aI1
aI0
aI1
aI0
aI1
aI0
aI1
aI0
aI1
aI0
aI1
aI0
aI1
aI0
aI1
aI0
aI1
aI0
aI1
aI0
aI1
aI0
aI1
aI0
aI1
aI0
aI1
aI0
aI1
aI0
aI1
aI0
aI1
aI0
aI1
aI0
aI1
aI0
aI1
aI0
aI1
aI0
aI1
aI0
aI1
aI0
aI1
aI0
aI1
aI0
aI1
aI0
aI1
aI0
aI1
aI0
aI1
aI0
aI1
aI0
aI1
aI0
aI1
aI0
aI1
aI0
aI1
aI0
aI1
aI0
aI1
aI0
aI1
aI0
aI1
aI0
aI1
aI0
aI1
aI0
aI1
aI0
aI1
aI0
aI1
aI0
aI1
aI0
aI1
aI0
aI1
aI0
aI1
aI0
aI1
aI0
aI1
aI0
aI1
aI0
aI1
aI0
aI1
aI0
aI1
aI0
aI1
aI0
aI1
aI0
aI1
aI0
aI1
aI0
aI1
aI0
aI1
aI0
aI1
aI0
aI1
aI0
aI1
aI0
aI1
aI0
aI1
aI0
aI1
aI0
aI1
aI0
aI1
aI0
aI1
aI0
aI1
aI0
aI1
aI0
aI1
aI0
aI1
aI0
aI1
aI0
aI1
aI0
aI1
aI0
aI1
aI0
aI1
aI0
asg18
S'thuleanperspective2015_archive.torrent'
p610
sg20
F-1
sg21
S'/media/fgloblek/lacie'
p611
sg23
F1587679178.9608879
sg24
I2097152
sg25
S'6a946c296bb003c0b2581097253193ea2d8222dc'
p612
sg27
I01
sg28
I00
sg29
I00
sg30
(lp613
(dp614
S'send_stats'
p615
I01
sS'fails'
p616
I0
sS'verified'
p617
I00
sS'scrape_incomplete'
p618
I-1
sS'min_announce'
p619
NsS'scrape_downloaded'
p620
I-1
sS'url'
p621
S'http://bt1.archive.org:6969/announce'
p622
sS'last_error'
p623
(dp624
S'category'
p625
S'system'
p626
sS'value'
p627
I0
ssS'fail_limit'
p628
I0
sS'next_announce'
p629
NsS'complete_sent'
p630
I00
sS'source'
p631
I1
sS'trackerid'
p632
S''
sS'start_sent'
p633
I00
sS'tier'
p634
I0
sS'scrape_complete'
p635
I-1
sS'message'
p636
S''
sS'updating'
p637
I00
sa(dp638
S'send_stats'
p639
I01
sS'fails'
p640
I0
sS'verified'
p641
I00
sS'scrape_incomplete'
p642
I-1
sS'min_announce'
p643
NsS'scrape_downloaded'
p644
I-1
sS'url'
p645
S'http://bt2.archive.org:6969/announce'
p646
sS'last_error'
p647
(dp648
S'category'
p649
S'system'
p650
sS'value'
p651
I0
ssS'fail_limit'
p652
I0
sS'next_announce'
p653
NsS'complete_sent'
p654
I00
sS'source'
p655
I1
sS'trackerid'
p656
S''
sS'start_sent'
p657
I00
sS'tier'
p658
I1
sS'scrape_complete'
p659
I-1
sS'message'
p660
S''
sS'updating'
p661
I00
sasg56
Nsg57
I00
sg58
F2
sg59
I00
sba(ideluge.core.torrentmanager
TorrentState
p662
(dp663
g7
F-1
sg8
S'/home/fgloblek/Downloads'
p664
sg10
I01
sg11
I-1
sg12
I00
sg13
I-1
sg14
I00
sg15
I16
sg16
(lp665
I4
asg18
S'c68e4b7977c9ea8d7716b0e3c943d3ca51ecc526'
p666
sg20
F-1
sg21
S'/media/fgloblek/lacie'
p667
sg23
F1599828792.500777
sg24
I0
sg25
S'c68e4b7977c9ea8d7716b0e3c943d3ca51ecc526'
p668
sg27
I01
sg28
I00
sg29
I00
sg30
(lp669
(dp670
S'send_stats'
p671
I01
sS'fails'
p672
I0
sS'verified'
p673
I00
sS'scrape_incomplete'
p674
I-1
sS'min_announce'
p675
NsS'scrape_downloaded'
p676
I-1
sS'url'
p677
S'udp://tracker.openbittorrent.com:80'
p678
sS'last_error'
p679
(dp680
S'category'
p681
S'system'
p682
sS'value'
p683
I0
ssS'fail_limit'
p684
I0
sS'next_announce'
p685
NsS'complete_sent'
p686
I00
sS'source'
p687
I4
sS'trackerid'
p688
S''
sS'start_sent'
p689
I00
sS'tier'
p690
I0
sS'scrape_complete'
p691
I-1
sS'message'
p692
S''
sS'updating'
p693
I00
sa(dp694
S'send_stats'
p695
I01
sS'fails'
p696
I0
sS'verified'
p697
I00
sS'scrape_incomplete'
p698
I-1
sS'min_announce'
p699
NsS'scrape_downloaded'
p700
I-1
sS'url'
p701
S'udp://tracker.opentrackr.org:1337/announce'
p702
sS'last_error'
p703
(dp704
S'category'
p705
S'system'
p706
sS'value'
p707
I0
ssS'fail_limit'
p708
I0
sS'next_announce'
p709
NsS'complete_sent'
p710
I00
sS'source'
p711
I4
sS'trackerid'
p712
S''
sS'start_sent'
p713
I00
sS'tier'
p714
I1
sS'scrape_complete'
p715
I-1
sS'message'
p716
S''
sS'updating'
p717
I00
sasg56
Nsg57
I00
sg58
F2
sg59
I01
sba(ideluge.core.torrentmanager
TorrentState
p718
(dp719
g7
F-1
sg8
S'/home/fgloblek/Downloads'
p720
sg10
I01
sg11
I-1
sg12
I00
sg13
I-1
sg14
I00
sg15
I44
sg16
(lp721
sg18
S'f7849c21f83213525df0f89b43bd896858dca28b'
p722
sg20
F-1
sg21
S'/media/fgloblek/lacie'
p723
sg23
F1577894818.5200961
sg24
I0
sg25
S'f7849c21f83213525df0f89b43bd896858dca28b'
p724
sg27
I01
sg28
I00
sg29
I00
sg30
(lp725
(dp726
S'send_stats'
p727
I01
sS'fails'
p728
I0
sS'verified'
p729
I00
sS'scrape_incomplete'
p730
I-1
sS'min_announce'
p731
NsS'scrape_downloaded'
p732
I-1
sS'url'
p733
S'http://bt.t-ru.org/ann?magnet'
p734
sS'last_error'
p735
(dp736
S'category'
p737
S'system'
p738
sS'value'
p739
I0
ssS'fail_limit'
p740
I0
sS'next_announce'
p741
NsS'complete_sent'
p742
I00
sS'source'
p743
I4
sS'trackerid'
p744
S''
sS'start_sent'
p745
I00
sS'tier'
p746
I0
sS'scrape_complete'
p747
I-1
sS'message'
p748
S''
sS'updating'
p749
I00
sasg56
S'magnet:?xt=urn:btih:F7849C21F83213525DF0F89B43BD896858DCA28B&tr=http%3A%2F%2Fbt.t-ru.org%2Fann%3Fmagnet&dn=%D0%A2%D0%B0%D0%BD%D1%8C%20%D0%90%D0%BE%D1%88%D1%83%D0%B0%D0%BD%20-%20%D0%A3%D1%87%D0%B5%D0%B1%D0%BD%D0%B8%D0%BA%20%D1%81%D0%BE%D0%B2%D1%80%D0%B5%D0%BC%D0%B5%D0%BD%D0%BD%D0%BE%D0%B3%D0%BE%20%D0%BA%D0%B8%D1%82%D0%B0%D0%B9%D1%81%D0%BA%D0%BE%D0%B3%D0%BE%20%D1%80%D0%B0%D0%B7%D0%B3%D0%BE%D0%B2%D0%BE%D1%80%D0%BD%D0%BE%D0%B3%D0%BE%20%D1%8F%D0%B7%D1%8B%D0%BA%D0%B0%20%5B1988%2C%20DjVu%2C%20CHN%5D'
p750
sg57
I00
sg58
F2
sg59
I00
sba(ideluge.core.torrentmanager
TorrentState
p751
(dp752
g7
F-1
sg8
S'/home/fgloblek/Downloads'
p753
sg10
I01
sg11
I-1
sg12
I00
sg13
I-1
sg14
I00
sg15
I15
sg16
(lp754
I4
asg18
S'a9f56253e753da088eabcaa7d491c27a65dc5df9'
p755
sg20
F-1
sg21
S'/media/fgloblek/lacie'
p756
sg23
F1577894789.945365
sg24
I0
sg25
S'a9f56253e753da088eabcaa7d491c27a65dc5df9'
p757
sg27
I01
sg28
I00
sg29
I00
sg30
(lp758
(dp759
S'send_stats'
p760
I01
sS'fails'
p761
I0
sS'verified'
p762
I00
sS'scrape_incomplete'
p763
I-1
sS'min_announce'
p764
NsS'scrape_downloaded'
p765
I-1
sS'url'
p766
S'http://bt3.t-ru.org/ann?magnet'
p767
sS'last_error'
p768
(dp769
S'category'
p770
S'system'
p771
sS'value'
p772
I0
ssS'fail_limit'
p773
I0
sS'next_announce'
p774
NsS'complete_sent'
p775
I00
sS'source'
p776
I4
sS'trackerid'
p777
S''
sS'start_sent'
p778
I00
sS'tier'
p779
I0
sS'scrape_complete'
p780
I-1
sS'message'
p781
S''
sS'updating'
p782
I00
sasg56
Nsg57
I00
sg58
F2
sg59
I01
sba(ideluge.core.torrentmanager
TorrentState
p783
(dp784
g7
F-1
sg8
S'/home/fgloblek/Downloads'
p785
sg10
I00
sg11
I-1
sg12
I00
sg13
I-1
sg14
I00
sg15
I4
sg16
(lp786
I4
asg18
S'8409975f74774dd528ffe5474edae4bbdf58e04a'
p787
sg20
F-1
sg21
S'/media/fgloblek/lacie'
p788
sg23
F1612047699.0006869
sg24
I0
sg25
g787
sg27
I00
sg28
I00
sg29
I00
sg30
(lp789
(dp790
S'send_stats'
p791
I01
sS'fails'
p792
I0
sS'verified'
p793
I00
sS'scrape_incomplete'
p794
I-1
sS'min_announce'
p795
NsS'source'
p796
I4
sS'url'
p797
S'http://bt4.t-ru.org/ann?magnet'
p798
sS'last_error'
p799
(dp800
S'category'
p801
S'system'
p802
sS'value'
p803
I0
ssS'fail_limit'
p804
I0
sS'next_announce'
p805
NsS'complete_sent'
p806
I00
sS'scrape_downloaded'
p807
I-1
sS'trackerid'
p808
S''
sS'start_sent'
p809
I00
sS'tier'
p810
I0
sS'scrape_complete'
p811
I-1
sS'message'
p812
S''
sS'updating'
p813
I00
sasg56
S'magnet:?xt=urn:btih:8409975f74774dd528ffe5474edae4bbdf58e04a&dn=%D0%91%D0%B5%D0%B3%D1%83%D1%89%D0%B8%D0%B9%20%D0%BF%D0%BE%20%D0%BB%D0%B5%D0%B7%D0%B2%D0%B8%D1%8E%20%2F%20%D0%A7%D0%B5%D0%BB%D0%BE%D0%B2%D0%B5%D0%BA,%20%D0%B8%D0%B4%D1%83%D1%89%D0%B8%D0%B9%20%D0%BF%D0%BE%20%D0%BB%D0%B5%D0%B7%D0%B2%D0%B8%D1%8E%20%D0%B1%D1%80%D0%B8%D1%82%D0%B2%D1%8B%20%2F%20Blade%20Runner%20%28%D0%A0%D0%B8%D0%B4%D0%BB%D0%B8%20%D0%A1%D0%BA%D0%BE%D1%82%D1%82%20%2F%20Ridley%20Scott%29%20%5B1982,%20%D0%A1%D0%A8%D0%90,%20%D0%A4%D0%B0%D0%BD%D1%82%D0%B0%D1%81%D1%82%D0%B8%D0%BA%D0%B0,%20%D1%82%D1%80%D0%B8%D0%BB%D0%BB%D0%B5%D1%80,%20%D0%BA%D0%B8%D0%B1%D0%B5%D1%80%D0%BF%D0%B0%D0%BD%D0%BA,%20BDRip%5D%20%5B%D0%9C&tr=http%3A%2F%2Fbt4.t-ru.org%2Fann%3Fmagnet'
p814
sg57
I00
sg58
F2
sg59
I00
sba(ideluge.core.torrentmanager
TorrentState
p815
(dp816
g7
F-1
sg8
S'/home/fgloblek/Downloads'
p817
sg10
I01
sg11
I-1
sg12
I00
sg13
I-1
sg14
I00
sg15
I41
sg16
(lp818
I4
asg18
S'cf489218594de2dc04b2ac6e9debb58d2e95144d'
p819
sg20
F-1
sg21
S'/media/fgloblek/lacie'
p820
sg23
F1577894801.631916
sg24
I0
sg25
S'cf489218594de2dc04b2ac6e9debb58d2e95144d'
p821
sg27
I01
sg28
I00
sg29
I00
sg30
(lp822
(dp823
S'send_stats'
p824
I01
sS'fails'
p825
I0
sS'verified'
p826
I00
sS'scrape_incomplete'
p827
I-1
sS'min_announce'
p828
NsS'scrape_downloaded'
p829
I-1
sS'url'
p830
S'http://bt2.t-ru.org/ann?magnet'
p831
sS'last_error'
p832
(dp833
S'category'
p834
S'system'
p835
sS'value'
p836
I0
ssS'fail_limit'
p837
I0
sS'next_announce'
p838
NsS'complete_sent'
p839
I00
sS'source'
p840
I4
sS'trackerid'
p841
S''
sS'start_sent'
p842
I00
sS'tier'
p843
I0
sS'scrape_complete'
p844
I-1
sS'message'
p845
S''
sS'updating'
p846
I00
sasg56
Nsg57
I00
sg58
F2
sg59
I00
sba(ideluge.core.torrentmanager
TorrentState
p847
(dp848
g7
F-1
sg8
S'/home/fgloblek/Downloads'
p849
sg10
I01
sg11
I-1
sg12
I00
sg13
I-1
sg14
I00
sg15
I14
sg16
(lp850
I4
asg18
S'0f6f7c3b3286cdd7d3b4fd2f66555dc84a32df4f'
p851
sg20
F-1
sg21
S'/media/fgloblek/lacie'
p852
sg23
F1577894753.854784
sg24
I0
sg25
S'0f6f7c3b3286cdd7d3b4fd2f66555dc84a32df4f'
p853
sg27
I01
sg28
I00
sg29
I00
sg30
(lp854
(dp855
S'send_stats'
p856
I01
sS'fails'
p857
I0
sS'verified'
p858
I00
sS'scrape_incomplete'
p859
I-1
sS'min_announce'
p860
NsS'scrape_downloaded'
p861
I-1
sS'url'
p862
S'http://bt.t-ru.org/ann?magnet'
p863
sS'last_error'
p864
(dp865
S'category'
p866
S'system'
p867
sS'value'
p868
I0
ssS'fail_limit'
p869
I0
sS'next_announce'
p870
NsS'complete_sent'
p871
I00
sS'source'
p872
I4
sS'trackerid'
p873
S''
sS'start_sent'
p874
I00
sS'tier'
p875
I0
sS'scrape_complete'
p876
I-1
sS'message'
p877
S''
sS'updating'
p878
I00
sasg56
Nsg57
I00
sg58
F2
sg59
I01
sba(ideluge.core.torrentmanager
TorrentState
p879
(dp880
g7
F-1
sg8
S'/home/fgloblek/Downloads'
p881
sg10
I01
sg11
I-1
sg12
I00
sg13
I-1
sg14
I00
sg15
I13
sg16
(lp882
I4
asg18
S'476a4ba96293e497577ade4a2080e069382fdfd5'
p883
sg20
F-1
sg21
S'/media/fgloblek/lacie'
p884
sg23
F1577894760.2515659
sg24
I0
sg25
S'476a4ba96293e497577ade4a2080e069382fdfd5'
p885
sg27
I01
sg28
I00
sg29
I00
sg30
(lp886
(dp887
S'send_stats'
p888
I01
sS'fails'
p889
I0
sS'verified'
p890
I00
sS'scrape_incomplete'
p891
I-1
sS'min_announce'
p892
NsS'scrape_downloaded'
p893
I-1
sS'url'
p894
S'http://bt3.t-ru.org/ann?magnet'
p895
sS'last_error'
p896
(dp897
S'category'
p898
S'system'
p899
sS'value'
p900
I0
ssS'fail_limit'
p901
I0
sS'next_announce'
p902
NsS'complete_sent'
p903
I00
sS'source'
p904
I4
sS'trackerid'
p905
S''
sS'start_sent'
p906
I00
sS'tier'
p907
I0
sS'scrape_complete'
p908
I-1
sS'message'
p909
S''
sS'updating'
p910
I00
sasg56
Nsg57
I00
sg58
F2
sg59
I01
sba(ideluge.core.torrentmanager
TorrentState
p911
(dp912
g7
F-1
sg8
S'/home/fgloblek/Downloads'
p913
sg10
I00
sg11
I-1
sg12
I00
sg13
I-1
sg14
I00
sg15
I26
sg16
(lp914
I4
aI4
aI4
aI4
aI4
aI4
aI4
aI4
aI4
aI4
aI4
aI4
aI4
aI4
aI4
aI4
aI4
aI4
aI4
aI4
aI4
aI4
aI4
aI4
aI4
aI4
aI4
aI4
aI4
aI4
aI4
aI4
aI4
aI4
aI4
aI4
aI4
aI4
aI4
aI4
aI4
aI4
aI4
aI4
aI4
aI4
aI4
aI4
aI4
aI4
aI4
aI4
aI4
aI4
aI4
aI4
aI4
aI4
aI4
aI4
aI4
aI4
aI4
aI4
aI4
aI4
aI4
aI4
aI4
aI4
aI4
aI4
aI4
aI4
aI4
aI4
aI4
aI4
aI4
aI4
aI4
aI4
aI4
aI4
aI4
aI4
aI4
aI4
aI4
aI4
aI4
aI4
aI4
aI4
aI4
aI4
aI4
aI4
aI4
aI4
aI4
aI4
aI4
aI4
aI4
aI4
aI4
aI4
aI4
aI4
aI4
aI4
aI4
aI4
aI4
aI4
aI4
aI4
aI4
aI4
aI4
aI4
aI4
aI4
aI4
aI4
aI4
aI4
aI4
aI4
aI4
aI4
aI4
aI4
aI4
aI4
aI4
aI4
aI4
aI4
aI4
aI4
aI4
aI4
aI4
aI4
aI4
aI4
aI4
aI4
aI4
aI4
aI4
aI4
aI4
aI4
aI4
aI4
aI4
aI4
aI4
aI4
aI4
aI4
aI4
aI4
aI4
aI4
aI4
aI4
aI4
aI4
aI4
aI4
aI4
aI4
aI4
aI4
aI4
aI4
aI4
aI4
aI4
aI4
aI4
aI4
aI4
aI4
aI4
aI4
aI4
aI4
aI4
aI4
aI4
aI4
aI4
aI4
aI4
aI4
aI4
aI4
aI4
aI4
aI4
aI4
aI4
aI4
aI4
aI4
aI4
aI4
aI4
aI4
aI4
aI4
aI4
aI4
aI4
aI4
aI4
aI4
aI4
aI4
aI4
aI4
aI4
aI4
aI4
aI4
aI4
aI4
aI4
aI4
aI4
aI4
aI4
aI4
aI4
aI4
aI4
aI4
aI4
aI4
aI4
aI4
aI4
aI4
aI4
aI4
aI4
aI4
aI4
aI4
aI4
aI4
aI4
aI4
aI4
aI4
aI4
aI4
aI4
aI4
aI4
aI4
aI4
aI4
aI4
aI4
aI4
aI4
aI4
aI4
aI4
aI4
aI4
aI4
aI4
aI4
aI4
aI4
aI4
aI4
aI4
aI4
aI4
aI4
aI4
aI4
aI4
aI4
aI4
aI4
aI4
aI4
aI4
aI4
aI4
aI4
aI4
aI4
aI4
aI4
aI4
aI4
aI4
aI4
aI4
aI4
aI4
aI4
aI4
aI4
aI4
aI4
aI4
aI4
aI4
aI4
aI4
aI4
aI4
aI4
aI4
aI4
aI4
aI4
aI4
aI4
aI4
aI4
aI4
aI4
aI4
aI4
aI4
aI4
aI4
aI4
aI4
aI4
aI4
aI4
aI4
aI4
aI4
aI4
aI4
aI4
aI4
aI4
aI4
aI4
aI4
aI4
aI4
aI4
aI4
aI4
aI4
aI4
aI4
aI4
aI4
aI4
aI4
aI4
aI4
aI4
aI4
aI4
aI4
aI4
aI4
aI4
aI4
aI4
aI4
aI4
aI4
aI4
aI4
aI4
aI4
aI4
aI4
aI4
aI4
aI4
aI4
aI4
aI4
aI4
aI4
aI4
aI4
aI4
aI4
aI4
aI4
aI4
aI4
aI4
aI4
aI4
aI4
aI4
aI4
aI4
aI4
aI4
aI4
aI4
aI4
aI4
aI4
aI4
aI4
aI4
aI4
aI4
aI4
aI4
aI4
aI4
aI4
aI4
aI4
aI4
aI4
aI4
aI4
aI4
aI4
aI4
aI4
aI4
aI4
aI4
aI4
aI4
aI4
aI4
aI4
aI4
aI4
aI4
aI4
aI4
aI4
aI4
aI4
aI4
aI4
aI4
aI4
aI4
aI4
aI4
aI4
aI4
aI4
aI4
aI4
aI4
aI4
aI4
aI4
aI4
aI4
aI4
aI4
aI4
aI4
aI4
aI4
aI4
aI4
aI4
aI4
aI4
aI4
aI4
aI4
aI4
aI4
aI4
aI4
aI4
aI4
aI4
aI4
aI4
aI4
aI4
aI4
aI4
aI4
aI4
aI4
aI4
aI4
aI4
aI4
aI4
aI4
aI4
aI4
aI4
aI4
aI4
aI4
aI4
aI4
aI4
aI4
aI4
aI4
aI4
aI4
aI4
aI4
aI4
aI4
aI4
aI4
aI4
aI4
aI4
aI4
aI4
aI4
aI4
aI4
aI4
aI4
aI4
aI4
aI4
aI4
aI4
aI4
aI4
aI4
aI4
aI4
aI4
aI4
aI4
aI4
aI4
aI4
aI4
aI4
aI4
aI4
aI4
aI4
aI4
aI4
aI4
aI4
aI4
aI4
aI4
aI4
aI4
aI4
aI4
aI4
aI4
aI4
aI4
aI4
aI4
aI4
aI4
aI4
aI4
aI4
aI4
aI4
aI4
aI4
aI4
aI4
aI4
aI4
aI4
aI4
aI4
aI4
aI4
aI4
aI4
aI4
aI4
aI4
aI4
aI4
aI4
aI4
aI4
aI4
aI4
aI4
aI4
aI4
aI4
aI4
aI4
aI4
aI4
aI4
aI4
aI4
aI4
aI4
aI4
aI4
aI4
aI4
aI4
aI4
aI4
aI4
aI4
aI4
aI4
aI4
aI4
aI4
aI4
aI4
aI4
aI4
aI4
aI4
aI4
aI4
aI4
aI4
aI4
aI4
aI4
aI4
aI4
aI4
aI4
aI4
aI4
aI4
aI4
aI4
aI4
aI4
aI4
aI4
aI4
aI4
aI4
aI4
aI4
aI4
aI4
aI4
aI4
aI4
aI4
aI4
aI4
aI4
aI4
aI4
aI4
aI4
aI4
aI4
aI4
aI4
aI4
aI4
aI4
aI4
aI4
aI4
aI4
aI4
aI4
aI4
aI4
aI4
aI4
aI4
aI4
aI4
aI4
aI4
aI4
aI4
aI4
aI4
aI4
aI4
aI4
aI4
aI4
aI4
aI4
aI4
aI4
aI4
aI4
aI4
aI4
aI4
aI4
aI4
aI4
aI4
aI4
aI4
aI4
aI4
aI4
aI4
aI4
aI4
aI4
aI4
aI4
aI4
aI4
aI4
aI4
aI4
aI4
aI4
aI4
aI4
aI4
aI4
aI4
aI4
aI4
aI4
aI4
aI4
aI4
aI4
aI4
aI4
aI4
aI4
aI4
aI4
aI4
aI4
aI4
aI4
aI4
aI4
aI4
aI4
aI4
aI4
aI4
aI4
aI4
aI4
aI4
aI4
aI4
aI4
aI4
aI4
aI4
aI4
aI4
aI4
aI4
aI4
aI4
aI4
aI4
aI4
aI4
aI4
aI4
aI4
aI4
aI4
aI4
aI4
aI4
aI4
aI4
aI4
aI4
aI4
aI4
aI4
aI4
aI4
aI4
aI4
aI4
aI4
aI4
aI4
aI4
aI4
aI4
aI4
aI4
aI4
aI4
aI4
aI4
aI4
aI4
aI4
aI4
aI4
aI4
aI4
aI4
aI4
aI4
aI4
aI4
aI4
aI4
aI4
aI4
aI4
aI4
aI4
aI4
aI4
aI4
aI4
aI4
aI4
aI4
aI4
aI4
aI4
aI4
aI4
aI4
aI4
aI4
aI4
aI4
aI4
aI4
aI4
aI4
aI4
aI4
aI4
aI4
aI4
aI4
aI4
aI4
aI4
aI4
aI4
aI4
aI4
aI4
aI4
aI4
aI4
aI4
aI4
aI4
aI4
aI4
aI4
aI4
aI4
aI4
aI4
aI4
aI4
aI4
aI4
aI4
aI4
aI4
aI4
aI4
aI4
aI4
aI4
aI4
aI4
aI4
aI4
aI4
aI4
aI4
aI4
aI4
aI4
aI4
aI4
aI4
aI4
aI4
aI4
aI4
aI4
aI4
aI4
aI4
aI4
aI4
aI4
aI4
aI4
aI4
aI4
aI4
aI4
aI4
aI4
aI4
aI4
aI4
aI4
aI4
aI4
aI4
aI4
aI4
aI4
aI4
aI4
aI4
aI4
aI4
aI4
aI4
aI4
aI4
aI4
aI4
aI4
aI4
aI4
aI4
aI4
aI4
aI4
aI4
aI4
aI4
aI4
aI4
aI4
aI4
aI4
aI4
aI4
aI4
aI4
aI4
aI4
aI4
aI4
aI4
aI4
aI4
aI4
aI4
aI4
aI4
aI4
aI4
aI4
aI4
aI4
aI4
aI4
aI4
aI4
aI4
aI4
aI4
aI4
aI4
aI4
aI4
aI4
aI4
aI4
aI4
aI4
aI4
aI4
aI4
aI4
aI4
aI4
aI4
aI4
aI4
aI4
aI4
aI4
aI4
aI4
aI4
aI4
aI4
aI4
aI4
aI4
aI4
aI4
aI4
aI4
aI4
aI4
aI4
aI4
aI4
aI4
aI4
aI4
aI4
aI4
aI4
aI4
aI4
aI4
aI4
aI4
aI4
aI4
aI4
aI4
aI4
aI4
aI4
aI4
aI4
aI4
aI4
aI4
aI4
aI4
aI4
aI4
aI4
aI4
aI4
aI4
aI4
aI4
aI4
aI4
aI4
aI4
aI4
aI4
aI4
aI4
aI4
aI4
aI4
aI4
aI4
aI4
aI4
aI4
aI4
aI4
aI4
aI4
aI4
aI4
aI4
aI4
aI4
aI4
aI4
aI4
aI4
aI4
aI4
aI4
aI4
aI4
aI4
aI4
aI4
aI4
aI4
aI4
aI4
aI4
aI4
aI4
aI4
aI4
aI4
aI4
aI4
aI4
aI4
aI4
aI4
aI4
aI4
aI4
aI4
aI4
aI4
aI4
aI4
aI4
aI4
aI4
aI4
aI4
aI4
aI4
aI4
aI4
aI4
aI4
aI4
aI4
aI4
aI4
aI4
aI4
aI4
aI4
aI4
aI4
aI4
aI4
aI4
aI4
aI4
aI4
aI4
aI4
aI4
aI4
aI4
aI4
aI4
aI4
aI4
aI4
aI4
aI4
aI4
aI4
aI4
aI4
aI4
aI4
aI4
aI4
aI4
aI4
aI4
aI4
aI4
aI4
aI4
aI4
aI4
aI4
aI4
aI4
aI4
aI4
aI4
aI4
aI4
aI4
aI4
aI4
aI4
aI4
aI4
aI4
aI4
aI4
aI4
aI4
aI4
aI4
aI4
aI4
aI4
aI4
aI4
aI4
aI4
aI4
aI4
aI4
aI4
aI4
aI4
aI4
aI4
aI4
aI4
aI4
aI4
aI4
aI4
aI4
aI4
aI4
aI4
aI4
aI4
aI4
aI4
aI4
aI4
aI4
aI4
aI4
aI4
aI4
aI4
aI4
aI4
aI4
aI4
aI4
aI4
aI4
aI4
aI4
aI4
aI4
aI4
aI4
aI4
aI4
aI4
aI4
aI4
aI4
aI4
aI4
aI4
aI4
aI4
aI4
aI4
aI4
aI4
aI4
aI4
aI4
aI4
aI4
aI4
aI4
aI4
aI4
aI4
aI4
aI4
aI4
aI4
aI4
aI4
aI4
aI4
aI4
aI4
aI4
aI4
aI4
aI4
aI4
aI4
aI4
aI4
aI4
aI4
aI4
aI4
aI4
aI4
aI4
aI4
aI4
aI4
aI4
aI4
aI4
aI4
aI4
aI4
aI4
aI4
aI4
aI4
aI4
aI4
aI4
aI4
aI4
aI4
aI4
aI4
aI4
aI4
aI4
aI4
aI4
aI4
aI4
aI4
aI4
aI4
aI4
aI4
aI4
aI4
aI4
aI4
aI4
aI4
aI4
aI4
aI4
aI4
aI4
aI4
aI4
aI4
aI4
aI4
aI4
aI4
aI4
aI4
aI4
aI4
aI4
aI4
aI4
aI4
aI4
aI4
aI4
aI4
aI4
aI4
aI4
aI4
aI4
aI4
aI4
aI4
aI4
aI4
aI4
aI4
aI4
aI4
aI4
aI4
aI4
aI4
aI4
aI4
aI4
aI4
aI4
aI4
aI4
aI4
aI4
aI4
aI4
aI4
aI4
aI4
aI4
aI4
aI4
aI4
aI4
aI4
aI4
aI4
aI4
aI4
aI4
aI4
aI4
aI4
aI4
aI4
aI4
aI4
aI4
aI4
aI4
aI4
aI4
aI4
aI4
aI4
aI4
aI4
aI4
aI4
aI4
aI4
aI4
aI4
aI4
aI4
aI4
aI4
aI4
aI4
aI4
aI4
aI4
aI4
aI4
aI4
aI4
aI4
aI4
aI4
aI4
aI4
aI4
aI4
aI4
aI4
aI4
aI4
aI4
aI4
aI4
aI4
aI4
aI4
aI4
aI4
aI4
aI4
aI4
aI4
aI4
aI4
aI4
aI4
aI4
aI4
aI4
aI4
aI4
aI4
aI4
aI4
aI4
aI4
aI4
aI4
aI4
aI4
aI4
aI4
aI4
aI4
aI4
aI4
aI4
aI4
aI4
aI4
aI4
aI4
aI4
aI4
aI4
aI4
aI4
aI4
aI4
aI4
aI4
aI4
aI4
aI4
aI4
aI4
aI4
aI4
aI4
aI4
aI4
aI4
aI4
aI4
aI4
aI4
aI4
aI4
aI4
aI4
aI4
aI4
aI4
aI4
aI4
aI4
aI4
aI4
aI4
aI4
aI4
aI4
aI4
aI4
aI4
aI4
aI4
aI4
aI4
aI4
aI4
aI4
aI4
aI4
aI4
aI4
aI4
aI4
aI4
aI4
aI4
aI4
aI4
aI4
aI4
aI4
aI4
aI4
aI4
aI4
aI4
aI4
aI4
aI4
aI4
aI4
aI4
aI4
aI4
aI4
aI4
aI4
aI4
aI4
aI4
aI4
aI4
aI4
aI4
aI4
aI4
aI4
aI4
aI4
aI4
aI4
aI4
aI4
aI4
aI4
aI4
aI4
aI4
aI4
aI4
aI4
aI4
aI4
aI4
aI4
aI4
aI4
aI4
aI4
aI4
aI4
aI4
aI4
aI4
aI4
aI4
aI4
aI4
aI4
aI4
aI4
aI4
aI4
aI4
aI4
aI4
aI4
aI4
aI4
aI4
aI4
aI4
aI4
aI4
aI4
aI4
aI4
aI4
aI4
aI4
aI4
aI4
aI4
aI4
aI4
aI4
aI4
aI4
aI4
aI4
aI4
aI4
aI4
aI4
aI4
aI4
aI4
aI4
aI4
aI4
aI4
aI4
aI4
aI4
aI4
aI4
aI4
aI4
aI4
aI4
aI4
aI4
aI4
aI4
aI4
aI4
aI4
aI4
aI4
aI4
aI4
aI4
aI4
aI4
aI4
aI4
aI4
aI4
aI4
aI4
aI4
aI4
aI4
aI4
aI4
aI4
aI4
aI4
aI4
aI4
aI4
aI4
aI4
aI4
aI4
aI4
aI4
aI4
aI4
aI4
aI4
aI4
aI4
aI4
aI4
aI4
aI4
aI4
aI4
aI4
aI4
aI4
aI4
aI4
aI4
aI4
aI4
aI4
aI4
aI4
aI4
aI4
aI4
aI4
aI4
aI4
aI4
aI4
aI4
aI4
aI4
aI4
aI4
aI4
aI4
aI4
aI4
aI4
aI4
aI4
aI4
aI4
aI4
aI4
aI4
aI4
aI4
aI4
aI4
aI4
aI4
aI4
aI4
aI4
aI4
aI4
aI4
aI4
aI4
aI4
aI4
aI4
aI4
aI4
aI4
aI4
aI4
aI4
aI4
aI4
aI4
aI4
aI4
aI4
aI4
aI4
aI4
aI4
aI4
aI4
aI4
aI4
aI4
aI4
aI4
aI4
aI4
aI4
aI4
aI4
aI4
aI4
aI4
aI4
aI4
aI4
aI4
aI4
aI4
aI4
aI4
aI4
aI4
aI4
aI4
aI4
aI4
aI4
aI4
aI4
aI4
aI4
aI4
aI4
aI4
aI4
aI4
aI4
aI4
aI4
aI4
aI4
aI4
aI4
aI4
aI4
aI4
aI4
aI4
aI4
aI4
aI4
aI4
aI4
aI4
aI4
aI4
aI4
aI4
aI4
aI4
aI4
aI4
aI4
aI4
aI4
aI4
aI4
aI4
aI4
aI4
aI4
aI4
aI4
aI4
aI4
aI4
aI4
aI4
aI4
aI4
aI4
aI4
aI4
aI4
aI4
aI4
aI4
aI4
aI4
aI4
aI4
aI4
aI4
aI4
aI4
aI4
aI4
aI4
aI4
aI4
aI4
aI4
aI4
aI4
aI4
aI4
aI4
aI4
aI4
aI4
aI4
aI4
aI4
aI4
aI4
aI4
aI4
aI4
aI4
aI4
aI4
aI4
aI4
aI4
aI4
aI4
aI4
aI4
aI4
aI4
aI4
aI4
aI4
aI4
aI4
aI4
aI4
aI4
aI4
aI4
aI4
aI4
aI4
aI4
aI4
aI4
aI4
aI4
aI4
aI4
aI4
aI4
aI4
aI4
aI4
aI4
aI4
aI4
aI4
aI4
aI4
aI4
aI4
aI4
aI4
aI4
aI4
aI4
aI4
aI4
aI4
aI4
aI4
aI4
aI4
aI4
aI4
aI4
aI4
aI4
aI4
aI4
aI4
aI4
aI4
aI4
aI4
aI4
aI4
aI4
aI4
aI4
aI4
aI4
aI4
aI4
aI4
aI4
aI4
aI4
aI4
aI4
aI4
aI4
aI4
aI4
aI4
aI4
aI4
aI4
aI4
aI4
aI4
aI4
aI4
aI4
aI4
aI4
aI4
aI4
aI4
aI4
aI4
aI4
aI4
aI4
aI4
aI4
aI4
aI4
aI4
aI4
aI4
aI4
aI4
aI4
aI4
aI4
aI4
aI4
aI4
aI4
aI4
aI4
aI4
aI4
aI4
aI4
aI4
aI4
aI4
aI4
aI4
aI4
aI4
aI4
aI4
aI4
aI4
aI4
aI4
aI4
aI4
aI4
aI4
aI4
aI4
aI4
aI4
aI4
aI4
aI4
aI4
aI4
aI4
aI4
aI4
aI4
aI4
aI4
aI4
aI4
aI4
aI4
aI4
aI4
aI4
aI4
aI4
aI4
aI4
aI4
aI4
aI4
aI4
aI4
aI4
aI4
aI4
aI4
aI4
aI4
aI4
aI4
aI4
aI4
aI4
aI4
aI4
aI4
aI4
aI4
aI4
aI4
aI4
aI4
aI4
aI4
aI4
aI4
aI4
aI4
aI4
aI4
aI4
aI4
aI4
aI4
aI4
aI4
aI4
aI4
aI4
aI4
aI4
aI4
aI4
aI4
aI4
aI4
aI4
aI4
aI4
aI4
aI4
aI4
aI4
aI4
aI4
aI4
aI4
aI4
aI4
aI4
aI4
aI4
aI4
aI4
aI4
aI4
aI4
aI4
aI4
aI4
aI4
aI4
aI4
aI4
aI4
aI4
aI4
aI4
aI4
aI4
aI4
aI4
aI4
aI4
aI4
aI4
aI4
aI4
aI4
aI4
aI4
aI4
aI4
aI4
aI4
aI4
aI4
aI4
aI4
aI4
aI4
aI4
aI4
aI4
aI4
aI4
aI4
aI4
aI4
aI4
aI4
aI4
aI4
aI4
aI4
aI4
aI4
aI4
aI4
aI4
aI4
aI4
aI4
aI4
aI4
aI4
aI4
aI4
aI4
aI4
aI4
aI4
aI4
aI4
aI4
aI4
aI4
aI4
aI4
aI4
aI4
aI4
aI4
aI4
aI4
aI4
aI4
aI4
aI4
aI4
aI4
aI4
aI4
aI4
aI4
aI4
aI4
aI4
aI4
aI4
aI4
aI4
aI4
aI4
aI4
aI4
aI4
aI4
aI4
aI4
aI4
aI4
aI4
aI4
aI4
aI4
aI4
aI4
aI4
aI4
aI4
aI4
aI4
aI4
aI4
aI4
aI4
aI4
aI4
aI4
aI4
aI4
aI4
aI4
aI4
aI4
aI4
aI4
aI4
aI4
aI4
aI4
aI4
aI4
aI4
aI4
aI4
aI4
aI4
aI4
aI4
aI4
aI4
aI4
aI4
aI4
aI4
aI4
aI4
aI4
aI4
aI4
aI4
aI4
aI4
aI4
aI4
aI4
aI4
aI4
aI4
aI4
aI4
aI4
aI4
aI4
aI4
aI4
aI4
aI4
aI4
aI4
aI4
aI4
aI4
aI4
aI4
aI4
aI4
aI4
aI4
aI4
aI4
aI4
aI4
aI4
aI4
aI4
aI4
aI4
aI4
aI4
aI4
aI4
aI4
aI4
aI4
aI4
aI4
aI4
aI4
aI4
aI4
aI4
aI4
aI4
aI4
aI4
aI4
aI4
aI4
aI4
aI4
aI4
aI4
aI4
aI4
aI4
aI4
aI4
aI4
aI4
aI4
aI4
aI4
aI4
aI4
aI4
aI4
aI4
aI4
aI4
aI4
aI4
aI4
aI4
aI4
aI4
aI4
aI4
aI4
aI4
aI4
aI4
aI4
aI4
aI4
aI4
aI4
aI4
aI4
aI4
aI4
aI4
aI4
aI4
aI4
aI4
aI4
aI4
aI4
aI4
aI4
aI4
aI4
aI4
aI4
aI4
aI4
aI4
aI4
aI4
aI4
aI4
aI4
aI4
aI4
aI4
aI4
aI4
aI4
aI4
aI4
aI4
aI4
aI4
aI4
aI4
aI4
aI4
aI4
aI4
aI4
aI4
aI4
aI4
aI4
aI4
aI4
aI4
aI4
aI4
aI4
aI4
aI4
aI4
aI4
aI4
aI4
aI4
aI4
aI4
aI4
aI4
aI4
aI4
aI4
aI4
aI4
aI4
aI4
aI4
aI4
aI4
aI4
aI4
aI4
aI4
aI4
aI4
aI4
aI4
aI4
aI4
aI4
aI4
aI4
aI4
aI4
aI4
aI4
aI4
aI4
aI4
aI4
aI4
aI4
aI4
aI4
aI4
aI4
aI4
aI4
aI4
aI4
aI4
aI4
aI4
aI4
aI4
aI4
aI4
aI4
aI4
aI4
aI4
aI4
aI4
aI4
aI4
aI4
aI4
aI4
aI4
aI4
aI4
aI4
aI4
aI4
aI4
aI4
aI4
aI4
aI4
aI4
aI4
aI4
aI4
aI4
aI4
aI4
aI4
aI4
aI4
aI4
aI4
aI4
aI4
aI4
aI4
aI4
aI4
aI4
aI4
aI4
aI4
aI4
aI4
aI4
aI4
aI4
aI4
aI4
aI4
aI4
aI4
aI4
aI4
aI4
aI4
aI4
aI4
aI4
aI4
aI4
aI4
aI4
aI4
aI4
aI4
aI4
aI4
aI4
aI4
aI4
aI4
aI4
aI4
aI4
aI4
aI4
aI4
aI4
aI4
aI4
aI4
aI4
aI4
aI4
aI4
aI4
aI4
aI4
aI4
aI4
aI4
aI4
aI4
aI4
aI4
aI4
aI4
aI4
aI4
aI4
aI4
aI4
aI4
aI4
aI4
aI4
aI4
aI4
aI4
aI4
aI4
aI4
aI4
aI4
aI4
aI4
aI4
aI4
aI4
aI4
aI4
aI4
aI4
aI4
aI4
aI4
aI4
aI4
aI4
aI4
aI4
aI4
aI4
aI4
aI4
aI4
aI4
aI4
aI4
aI4
aI4
aI4
aI4
aI4
aI4
aI4
aI4
aI4
aI4
aI4
aI4
aI4
aI4
aI4
aI4
aI4
aI4
aI4
aI4
aI4
aI4
aI4
aI4
aI4
aI4
aI4
aI4
aI4
aI4
aI4
aI4
aI4
aI4
aI4
aI4
aI4
aI4
aI4
aI4
aI4
aI4
aI4
aI4
aI4
aI4
aI4
aI4
aI4
aI4
aI4
aI4
aI4
aI4
aI4
aI4
aI4
aI4
aI4
aI4
aI4
aI4
aI4
aI4
aI4
aI4
aI4
aI4
aI4
aI4
aI4
aI4
aI4
aI4
aI4
aI4
aI4
aI4
aI4
aI4
aI4
aI4
aI4
aI4
aI4
aI4
aI4
aI4
aI4
aI4
aI4
aI4
aI4
aI4
aI4
aI4
aI4
aI4
aI4
aI4
aI4
aI4
aI4
aI4
aI4
aI4
aI4
aI4
aI4
aI4
aI4
aI4
aI4
aI4
aI4
aI4
aI4
aI4
aI4
aI4
aI4
aI4
aI4
aI4
aI4
aI4
aI4
aI4
aI4
aI4
aI4
aI4
aI4
aI4
aI4
aI4
aI4
aI4
aI4
aI4
aI4
aI4
aI4
aI4
aI4
aI4
aI4
aI4
aI4
aI4
aI4
aI4
aI4
aI4
aI4
aI4
aI4
aI4
aI4
aI4
aI4
aI4
aI4
aI4
aI4
aI4
aI4
aI4
aI4
aI4
aI4
aI4
aI4
aI4
aI4
aI4
aI4
aI4
aI4
aI4
aI4
aI4
aI4
aI4
aI4
aI4
aI4
aI4
aI4
aI4
aI4
aI4
aI4
aI4
aI4
aI4
aI4
aI4
aI4
aI4
aI4
aI4
aI4
aI4
aI4
aI4
aI4
aI4
aI4
aI4
aI4
aI4
aI4
aI4
aI4
aI4
aI4
aI4
aI4
aI4
aI4
aI4
aI4
aI4
aI4
aI4
aI4
aI4
aI4
aI4
aI4
aI4
aI4
aI4
aI4
aI4
aI4
aI4
aI4
aI4
aI4
aI4
aI4
aI4
aI4
aI4
aI4
aI4
aI4
aI4
aI4
aI4
aI4
aI4
aI4
aI4
aI4
aI4
aI4
aI4
aI4
aI4
aI4
aI4
aI4
aI4
aI4
aI4
aI4
aI4
aI4
aI4
aI4
aI4
aI4
aI4
aI4
aI4
aI4
aI4
aI4
aI4
aI4
aI4
aI4
aI4
aI4
aI4
aI4
aI4
aI4
aI4
aI4
aI4
aI4
aI4
aI4
aI4
aI4
aI4
aI4
aI4
aI4
aI4
aI4
aI4
aI4
aI4
aI4
aI4
aI4
aI4
aI4
aI4
aI4
aI4
aI4
aI4
aI4
aI4
aI4
aI4
aI4
aI4
aI4
aI4
aI4
aI4
aI4
aI4
aI4
aI4
aI4
aI4
aI4
aI4
aI4
aI4
aI4
aI4
aI4
aI4
aI4
aI4
aI4
aI4
aI4
aI4
aI4
aI4
aI4
aI4
aI4
aI4
aI4
aI4
aI4
aI4
aI4
aI4
aI4
aI4
aI4
aI4
aI4
aI4
aI4
aI4
aI4
aI4
aI4
aI4
aI4
aI4
aI4
aI4
aI4
aI4
aI4
aI4
aI4
aI4
aI4
aI4
aI4
aI4
aI4
aI4
aI4
aI4
aI4
aI4
aI4
aI4
aI4
aI4
aI4
aI4
aI4
aI4
aI4
aI4
aI4
aI4
aI4
aI4
aI4
aI4
aI4
aI4
aI4
aI4
aI4
aI4
aI4
aI4
aI4
aI4
aI4
aI4
aI4
aI4
aI4
aI4
aI4
aI4
aI4
aI4
aI4
aI4
aI4
aI4
aI4
aI4
aI4
aI4
aI4
aI4
aI4
aI4
aI4
aI4
aI4
aI4
aI4
aI4
aI4
aI4
aI4
aI4
aI4
aI4
aI4
aI4
aI4
aI4
aI4
aI4
aI4
aI4
aI4
aI4
aI4
aI4
aI4
aI4
aI4
aI4
aI4
aI4
aI4
aI4
aI4
aI4
aI4
aI4
aI4
aI4
aI4
aI4
aI4
aI4
aI4
aI4
aI4
aI4
aI4
aI4
aI4
aI4
aI4
aI4
aI4
aI4
aI4
aI4
aI4
aI4
aI4
aI4
aI4
aI4
aI4
aI4
aI4
aI4
aI4
aI4
aI4
aI4
aI4
aI4
aI4
aI4
aI4
aI4
aI4
aI4
aI4
aI4
aI4
aI4
aI4
aI4
aI4
aI4
aI4
aI4
aI4
aI4
aI4
aI4
aI4
aI4
aI4
aI4
aI4
aI4
aI4
aI4
aI4
aI4
aI4
aI4
aI4
aI4
aI4
aI4
aI4
aI4
aI4
aI4
aI4
aI4
aI4
aI4
aI4
aI4
aI4
aI4
aI4
aI4
aI4
aI4
aI4
aI4
aI4
aI4
aI4
aI4
aI4
aI4
aI4
aI4
aI4
aI4
aI4
aI4
aI4
aI4
aI4
aI4
aI4
aI4
aI4
aI4
aI4
aI4
aI4
aI4
aI4
aI4
aI4
aI4
aI4
aI4
aI4
aI4
aI4
aI4
aI4
aI4
aI4
aI4
aI4
aI4
aI4
aI4
aI4
aI4
aI4
aI4
aI4
aI4
aI4
aI4
aI4
aI4
aI4
aI4
aI4
aI4
aI4
aI4
aI4
aI4
aI4
aI4
aI4
aI4
aI4
aI4
aI4
aI4
aI4
aI4
aI4
aI4
aI4
aI4
aI4
aI4
aI4
aI4
aI4
aI4
aI4
aI4
aI4
aI4
aI4
aI4
aI4
aI4
aI4
aI4
aI4
aI4
aI4
aI4
aI4
aI4
aI4
aI4
aI4
aI4
aI4
aI4
aI4
aI4
aI4
aI4
aI4
aI4
aI4
aI4
aI4
aI4
aI4
aI4
aI4
aI4
aI4
aI4
aI4
aI4
aI4
aI4
aI4
aI4
aI4
aI4
aI4
aI4
aI4
aI4
aI4
aI4
aI4
aI4
aI4
aI4
aI4
aI4
aI4
aI4
aI4
aI4
aI4
aI4
aI4
aI4
aI4
aI4
aI4
aI4
aI4
aI4
aI4
aI4
aI4
aI4
aI4
aI4
aI4
aI4
aI4
aI4
aI4
aI4
aI4
aI4
aI4
aI4
aI4
aI4
aI4
aI4
aI4
aI4
aI4
aI4
aI4
aI4
aI4
aI4
aI4
aI4
aI4
aI4
aI4
aI4
aI4
aI4
aI4
aI4
aI4
aI4
aI4
aI4
aI4
aI4
aI4
aI4
aI4
aI4
aI4
aI4
aI4
aI4
aI4
aI4
aI4
aI4
aI4
aI4
aI4
aI4
aI4
aI4
aI4
aI4
aI4
aI4
aI4
aI4
aI4
aI4
aI4
aI4
aI4
aI4
aI4
aI4
aI4
aI4
aI4
aI4
aI4
aI4
aI4
aI4
aI4
aI4
asg18
S'0582e57f6d704c9423c2a01973f643a51f884bd3'
p915
sg20
F-1
sg21
S'/media/fgloblek/lacie'
p916
sg23
F1604082939.242137
sg24
I0
sg25
S'0582e57f6d704c9423c2a01973f643a51f884bd3'
p917
sg27
I01
sg28
I00
sg29
I00
sg30
(lp918
(dp919
S'send_stats'
p920
I01
sS'fails'
p921
I0
sS'verified'
p922
I00
sS'scrape_incomplete'
p923
I-1
sS'min_announce'
p924
NsS'source'
p925
I4
sS'url'
p926
S'udp://tracker.openbittorrent.com:80'
p927
sS'last_error'
p928
(dp929
S'category'
p930
S'system'
p931
sS'value'
p932
I0
ssS'fail_limit'
p933
I0
sS'next_announce'
p934
NsS'complete_sent'
p935
I00
sS'scrape_downloaded'
p936
I-1
sS'trackerid'
p937
S''
sS'start_sent'
p938
I00
sS'tier'
p939
I0
sS'scrape_complete'
p940
I-1
sS'message'
p941
S''
sS'updating'
p942
I00
sa(dp943
S'send_stats'
p944
I01
sS'fails'
p945
I0
sS'verified'
p946
I00
sS'scrape_incomplete'
p947
I-1
sS'min_announce'
p948
NsS'source'
p949
I4
sS'url'
p950
S'udp://tracker.opentrackr.org:1337/announce'
p951
sS'last_error'
p952
(dp953
S'category'
p954
S'system'
p955
sS'value'
p956
I0
ssS'fail_limit'
p957
I0
sS'next_announce'
p958
NsS'complete_sent'
p959
I00
sS'scrape_downloaded'
p960
I-1
sS'trackerid'
p961
S''
sS'start_sent'
p962
I00
sS'tier'
p963
I1
sS'scrape_complete'
p964
I-1
sS'message'
p965
S''
sS'updating'
p966
I00
sasg56
Nsg57
I00
sg58
F2
sg59
I00
sba(ideluge.core.torrentmanager
TorrentState
p967
(dp968
g7
F-1
sg8
S'/home/fgloblek/Downloads'
p969
sg10
I01
sg11
I-1
sg12
I00
sg13
I-1
sg14
I00
sg15
I-1
sg16
(lp970
I4
asg18
S'7952132f1a12c169ee376a4fccfeba47890fcfee'
p971
sg20
F-1
sg21
S'/home/fgloblek/Videos'
p972
sg23
F1583953240.7370319
sg24
I38250112
sg25
S'7952132f1a12c169ee376a4fccfeba47890fcfee'
p973
sg27
I01
sg28
I00
sg29
I00
sg30
(lp974
(dp975
S'send_stats'
p976
I01
sS'fails'
p977
I0
sS'verified'
p978
I00
sS'scrape_incomplete'
p979
I-1
sS'min_announce'
p980
NsS'scrape_downloaded'
p981
I-1
sS'url'
p982
S'http://bt2.t-ru.org/ann?magnet'
p983
sS'last_error'
p984
(dp985
S'category'
p986
S'system'
p987
sS'value'
p988
I0
ssS'fail_limit'
p989
I0
sS'next_announce'
p990
NsS'complete_sent'
p991
I00
sS'source'
p992
I4
sS'trackerid'
p993
S''
sS'start_sent'
p994
I00
sS'tier'
p995
I0
sS'scrape_complete'
p996
I-1
sS'message'
p997
S''
sS'updating'
p998
I00
sasg56
Nsg57
I00
sg58
F2
sg59
I01
sba(ideluge.core.torrentmanager
TorrentState
p999
(dp1000
g7
F-1
sg8
S'/home/fgloblek/Downloads'
p1001
sg10
I01
sg11
I-1
sg12
I00
sg13
I-1
sg14
I00
sg15
I17
sg16
(lp1002
I4
asg18
S'a7a1250f62fbf4abe3a45643f95f3d73df443436'
p1003
sg20
F-1
sg21
S'/media/fgloblek/lacie'
p1004
sg23
F1577894812.5939751
sg24
I0
sg25
S'a7a1250f62fbf4abe3a45643f95f3d73df443436'
p1005
sg27
I01
sg28
I00
sg29
I00
sg30
(lp1006
(dp1007
S'send_stats'
p1008
I01
sS'fails'
p1009
I0
sS'verified'
p1010
I00
sS'scrape_incomplete'
p1011
I-1
sS'min_announce'
p1012
NsS'scrape_downloaded'
p1013
I-1
sS'url'
p1014
S'http://bt.t-ru.org/ann?magnet'
p1015
sS'last_error'
p1016
(dp1017
S'category'
p1018
S'system'
p1019
sS'value'
p1020
I0
ssS'fail_limit'
p1021
I0
sS'next_announce'
p1022
NsS'complete_sent'
p1023
I00
sS'source'
p1024
I4
sS'trackerid'
p1025
S''
sS'start_sent'
p1026
I00
sS'tier'
p1027
I0
sS'scrape_complete'
p1028
I-1
sS'message'
p1029
S''
sS'updating'
p1030
I00
sasg56
Nsg57
I00
sg58
F2
sg59
I01
sba(ideluge.core.torrentmanager
TorrentState
p1031
(dp1032
g7
I-1
sg8
S'/home/fgloblek/Downloads'
p1033
sg10
I00
sg11
I-1
sg12
I00
sg13
I-1
sg14
I00
sg15
I6
sg16
(lp1034
I4
aI4
aI4
aI4
aI4
aI4
aI4
aI4
aI4
aI4
aI4
aI4
aI4
aI4
aI7
aI4
aI4
aI4
aI4
aI4
aI4
aI4
aI4
aI4
aI4
aI4
aI4
aI4
asg18
S'2097383168b6db9177ad82ffe61bbee66e8989af'
p1035
sg20
F-1
sg21
S'/home/fgloblek/Downloads'
p1036
sg23
F1607596176.674767
sg24
I9387174
sg25
S'2097383168b6db9177ad82ffe61bbee66e8989af'
p1037
sg27
I01
sg28
I00
sg29
I00
sg30
(lp1038
(dp1039
S'send_stats'
p1040
I01
sS'fails'
p1041
I0
sS'verified'
p1042
I00
sS'scrape_incomplete'
p1043
I-1
sS'min_announce'
p1044
NsS'source'
p1045
I4
sS'url'
p1046
S'udp://tracker.openbittorrent.com:80'
p1047
sS'last_error'
p1048
(dp1049
S'category'
p1050
S'system'
p1051
sS'value'
p1052
I0
ssS'fail_limit'
p1053
I0
sS'next_announce'
p1054
NsS'complete_sent'
p1055
I00
sS'scrape_downloaded'
p1056
I-1
sS'trackerid'
p1057
S''
sS'start_sent'
p1058
I00
sS'tier'
p1059
I0
sS'scrape_complete'
p1060
I-1
sS'message'
p1061
S''
sS'updating'
p1062
I00
sa(dp1063
S'send_stats'
p1064
I01
sS'fails'
p1065
I0
sS'verified'
p1066
I00
sS'scrape_incomplete'
p1067
I-1
sS'min_announce'
p1068
NsS'source'
p1069
I4
sS'url'
p1070
S'udp://tracker.opentrackr.org:1337/announce'
p1071
sS'last_error'
p1072
(dp1073
S'category'
p1074
S'system'
p1075
sS'value'
p1076
I0
ssS'fail_limit'
p1077
I0
sS'next_announce'
p1078
NsS'complete_sent'
p1079
I00
sS'scrape_downloaded'
p1080
I-1
sS'trackerid'
p1081
S''
sS'start_sent'
p1082
I00
sS'tier'
p1083
I1
sS'scrape_complete'
p1084
I-1
sS'message'
p1085
S''
sS'updating'
p1086
I00
sasg56
Nsg57
I00
sg58
F2
sg59
I01
sba(ideluge.core.torrentmanager
TorrentState
p1087
(dp1088
g7
F-1
sg8
S'/home/fgloblek/Downloads'
p1089
sg10
I01
sg11
I-1
sg12
I00
sg13
I-1
sg14
I00
sg15
I12
sg16
(lp1090
I4
aI4
aI4
aI4
aI4
aI4
aI4
aI4
aI4
aI4
aI4
aI4
aI4
aI4
aI4
aI4
aI4
asg18
S'd3d06fc4ce0c313f77e3c7a68a98aa6dc88b108f'
p1091
sg20
F-1
sg21
S'/media/fgloblek/lacie'
p1092
sg23
F1577892367.514801
sg24
I245206927
sg25
S'd3d06fc4ce0c313f77e3c7a68a98aa6dc88b108f'
p1093
sg27
I01
sg28
I00
sg29
I00
sg30
(lp1094
(dp1095
S'send_stats'
p1096
I01
sS'fails'
p1097
I0
sS'verified'
p1098
I00
sS'scrape_incomplete'
p1099
I-1
sS'min_announce'
p1100
NsS'scrape_downloaded'
p1101
I-1
sS'url'
p1102
S'http://bt4.t-ru.org/ann?magnet'
p1103
sS'last_error'
p1104
(dp1105
S'category'
p1106
S'system'
p1107
sS'value'
p1108
I0
ssS'fail_limit'
p1109
I0
sS'next_announce'
p1110
NsS'complete_sent'
p1111
I00
sS'source'
p1112
I4
sS'trackerid'
p1113
S''
sS'start_sent'
p1114
I00
sS'tier'
p1115
I0
sS'scrape_complete'
p1116
I-1
sS'message'
p1117
S''
sS'updating'
p1118
I00
sasg56
Nsg57
I00
sg58
F2
sg59
I01
sba(ideluge.core.torrentmanager
TorrentState
p1119
(dp1120
g7
F-1
sg8
S'/home/fgloblek/Downloads'
p1121
sg10
I01
sg11
I-1
sg12
I00
sg13
I-1
sg14
I00
sg15
I34
sg16
(lp1122
I4
aI4
aI4
aI4
aI4
aI4
aI4
aI4
aI4
aI4
aI4
aI4
aI4
aI4
aI4
aI4
aI4
aI4
aI4
aI4
aI4
aI4
aI4
aI4
aI4
aI4
aI4
aI4
aI4
aI4
aI4
aI4
aI4
aI4
aI4
aI4
aI4
aI4
aI4
aI4
aI4
aI4
aI4
aI4
aI4
aI4
aI4
aI4
aI4
aI4
aI4
aI4
aI4
aI4
aI4
aI4
aI4
aI4
aI4
aI4
aI4
aI4
aI4
aI4
aI4
aI4
aI4
aI4
aI4
aI4
aI4
aI4
aI4
aI4
aI4
aI4
aI4
aI4
aI4
aI4
aI4
aI4
aI4
aI4
aI4
aI4
aI4
aI4
aI4
aI4
aI4
aI4
aI4
aI4
aI4
aI4
aI4
aI4
aI4
aI4
aI4
aI4
aI4
aI4
aI4
aI4
aI4
aI4
aI4
aI4
aI4
aI4
aI4
aI4
aI4
aI4
aI4
aI4
aI4
aI4
aI4
aI4
aI4
aI4
aI4
aI4
aI4
aI4
aI4
aI4
aI4
aI4
aI4
aI4
aI4
asg18
S'81bd48af138bac8a92c792f583fcbc46e3b46325'
p1123
sg20
F-1
sg21
S'/media/fgloblek/lacie'
p1124
sg23
F1577894779.0180049
sg24
I262144
sg25
S'81bd48af138bac8a92c792f583fcbc46e3b46325'
p1125
sg27
I01
sg28
I00
sg29
I00
sg30
(lp1126
(dp1127
S'send_stats'
p1128
I01
sS'fails'
p1129
I0
sS'verified'
p1130
I00
sS'scrape_incomplete'
p1131
I-1
sS'min_announce'
p1132
NsS'scrape_downloaded'
p1133
I-1
sS'url'
p1134
S'http://bt4.t-ru.org/ann?magnet'
p1135
sS'last_error'
p1136
(dp1137
S'category'
p1138
S'system'
p1139
sS'value'
p1140
I0
ssS'fail_limit'
p1141
I0
sS'next_announce'
p1142
NsS'complete_sent'
p1143
I00
sS'source'
p1144
I4
sS'trackerid'
p1145
S''
sS'start_sent'
p1146
I00
sS'tier'
p1147
I0
sS'scrape_complete'
p1148
I-1
sS'message'
p1149
S''
sS'updating'
p1150
I00
sasg56
Nsg57
I00
sg58
F2
sg59
I01
sba(ideluge.core.torrentmanager
TorrentState
p1151
(dp1152
g7
F-1
sg8
S'/home/fgloblek/Downloads'
p1153
sg10
I00
sg11
I-1
sg12
I00
sg13
I-1
sg14
I00
sg15
I7
sg16
(lp1154
I4
aI4
aI4
aI4
aI4
aI4
aI4
aI4
aI4
aI4
aI4
aI4
aI4
aI4
aI4
aI4
aI4
aI4
aI4
aI4
aI4
aI4
aI4
aI4
aI4
aI4
aI4
aI4
aI4
aI4
aI4
aI4
aI4
aI4
aI4
aI4
aI4
aI4
aI4
aI4
aI4
aI4
aI4
aI4
aI4
aI4
aI4
aI4
aI4
aI4
aI4
aI4
aI4
aI4
aI4
aI4
aI4
aI4
aI4
aI4
aI4
aI4
aI4
aI4
aI4
aI4
aI4
aI4
aI4
aI4
aI4
aI4
aI4
aI4
aI4
aI4
aI4
aI4
aI4
aI4
aI4
aI4
aI4
aI4
aI4
aI4
aI4
aI4
aI4
aI4
aI4
aI4
aI4
aI4
aI4
aI4
aI4
aI4
aI4
aI4
aI4
aI4
aI4
aI4
aI4
aI4
aI4
aI4
aI4
aI4
aI4
aI4
aI4
aI4
aI4
aI4
aI4
aI4
aI4
aI4
aI4
aI4
aI4
aI4
aI4
aI4
aI4
aI4
aI4
aI4
aI4
aI4
aI4
aI4
aI4
aI4
aI4
aI4
aI4
aI4
asg18
S'a41c328e3d4e879fe13ce537dbe8eb9296f65ebd'
p1155
sg20
F-1
sg21
S'/media/fgloblek/lacie'
p1156
sg23
F1587414178.4322169
sg24
I22588602
sg25
S'a41c328e3d4e879fe13ce537dbe8eb9296f65ebd'
p1157
sg27
I01
sg28
I00
sg29
I00
sg30
(lp1158
(dp1159
S'send_stats'
p1160
I01
sS'fails'
p1161
I0
sS'verified'
p1162
I00
sS'scrape_incomplete'
p1163
I-1
sS'min_announce'
p1164
NsS'scrape_downloaded'
p1165
I-1
sS'url'
p1166
S'http://bt2.t-ru.org/ann?magnet'
p1167
sS'last_error'
p1168
(dp1169
S'category'
p1170
S'system'
p1171
sS'value'
p1172
I0
ssS'fail_limit'
p1173
I0
sS'next_announce'
p1174
NsS'complete_sent'
p1175
I00
sS'source'
p1176
I4
sS'trackerid'
p1177
S''
sS'start_sent'
p1178
I00
sS'tier'
p1179
I0
sS'scrape_complete'
p1180
I-1
sS'message'
p1181
S''
sS'updating'
p1182
I00
sasg56
Nsg57
I00
sg58
F2
sg59
I01
sba(ideluge.core.torrentmanager
TorrentState
p1183
(dp1184
g7
F-1
sg8
S'/home/fgloblek/Downloads'
p1185
sg10
I01
sg11
I-1
sg12
I00
sg13
I-1
sg14
I00
sg15
I37
sg16
(lp1186
I1
aI0
aI1
aI0
aI1
aI0
aI1
aI0
aI1
aI0
aI1
aI0
aI1
aI0
aI1
aI0
aI1
aI0
aI1
aI0
aI1
aI0
aI1
aI0
aI1
aI0
aI1
aI0
aI1
aI0
aI1
aI0
aI1
aI0
aI1
aI0
aI1
aI0
aI1
aI0
aI1
aI0
aI1
aI0
aI1
aI0
aI1
aI0
aI1
aI0
aI1
aI0
aI1
aI0
aI1
aI0
aI1
aI0
aI1
aI0
aI1
aI0
aI1
aI0
aI1
aI0
aI1
aI0
aI1
aI0
aI1
aI0
aI1
aI0
aI1
aI0
aI1
aI0
aI1
aI0
aI1
aI0
aI1
aI0
aI1
aI0
aI1
aI0
aI1
aI0
aI1
aI0
aI1
aI0
aI1
aI0
aI1
aI0
aI1
aI0
aI1
aI0
aI1
aI0
aI1
aI0
aI1
aI0
aI1
aI0
aI1
aI0
aI1
aI0
aI1
aI0
aI1
aI0
aI1
aI0
aI1
aI0
aI1
aI0
aI1
aI0
aI1
aI0
aI1
aI0
aI1
aI0
aI1
aI0
aI1
aI0
aI1
aI0
aI1
aI0
aI1
aI0
aI1
aI0
aI1
aI0
aI1
aI0
aI1
aI0
aI1
aI0
aI1
aI0
aI1
aI0
aI1
aI0
aI1
aI0
aI1
aI0
aI1
aI0
aI1
aI0
aI1
aI0
aI1
aI0
aI1
aI0
aI1
aI0
aI1
aI0
aI1
aI0
aI1
aI0
aI1
aI0
aI1
aI0
aI1
aI0
aI1
aI0
aI1
aI0
aI1
aI0
aI1
aI0
aI1
aI0
aI1
aI0
aI1
aI0
aI1
aI0
aI1
aI0
aI1
aI0
aI1
aI0
aI1
aI0
aI1
aI0
aI1
aI0
aI1
aI0
aI1
aI0
aI1
aI0
aI1
aI0
aI1
aI0
aI1
aI0
aI1
aI0
aI1
aI0
aI1
aI0
aI1
aI0
aI1
aI0
aI1
aI0
aI1
aI0
aI1
aI0
aI1
aI0
aI1
aI0
aI1
aI0
aI1
aI0
aI1
aI0
aI1
aI0
aI1
aI0
aI1
aI0
aI1
aI0
aI1
aI0
aI1
aI0
aI1
aI0
aI1
aI0
aI1
aI0
aI1
aI0
aI1
aI0
aI1
aI0
aI1
aI0
aI1
aI0
aI1
aI0
aI1
aI0
aI1
aI0
aI1
aI0
aI1
aI0
aI1
aI0
aI1
aI0
aI1
aI0
aI1
aI0
aI1
aI0
aI1
aI0
aI1
aI0
aI1
aI0
aI1
aI0
aI1
aI0
aI1
aI0
aI1
aI0
aI1
aI0
aI1
aI0
aI1
aI0
aI1
aI0
aI1
aI0
aI1
aI0
aI1
aI0
aI1
aI0
aI1
aI0
aI1
aI0
aI1
aI0
aI1
aI0
aI1
aI0
aI1
aI0
aI1
aI0
aI1
aI0
aI1
aI0
aI1
aI0
aI1
aI0
aI1
aI0
aI1
aI0
aI1
aI0
aI1
aI0
aI1
aI0
aI1
aI0
aI1
aI0
aI1
aI0
aI1
aI0
aI1
aI0
aI1
aI0
aI1
aI0
aI1
aI0
aI1
aI0
aI1
aI0
aI1
aI0
aI1
aI0
aI1
aI0
aI1
aI0
aI1
aI0
aI1
aI0
aI1
aI0
aI1
aI0
aI1
aI0
aI1
aI0
aI1
aI0
aI1
aI0
aI1
aI0
aI1
aI0
aI1
aI0
aI1
aI0
aI1
aI0
aI1
aI0
aI1
aI0
aI1
aI0
aI1
aI0
aI1
aI0
aI1
aI0
aI1
aI0
aI1
aI0
aI1
aI0
aI1
aI0
aI1
aI0
aI1
aI0
aI1
aI0
aI1
aI0
aI1
aI0
aI1
aI0
aI1
aI0
aI1
aI0
aI1
aI0
aI1
aI0
aI1
aI0
aI1
aI0
aI1
aI0
aI1
aI0
aI1
aI0
aI1
aI0
aI1
aI0
aI1
aI0
aI1
aI0
aI1
aI0
aI1
aI0
aI1
aI0
aI1
aI0
aI1
aI0
aI1
aI0
aI1
aI0
aI1
aI0
aI1
aI0
aI1
aI0
aI1
aI0
aI1
aI0
aI1
aI0
aI1
aI0
aI1
aI0
aI1
aI0
aI1
aI0
aI1
aI0
aI1
aI0
aI1
aI0
aI1
aI0
aI1
aI0
aI1
aI0
aI1
aI0
aI1
aI0
aI1
aI0
aI1
aI0
aI1
aI0
aI1
aI0
aI1
aI0
aI1
aI0
aI1
aI0
aI1
aI0
aI1
aI0
aI1
aI0
aI1
aI0
aI1
aI0
aI1
aI0
aI1
aI0
aI1
aI0
aI1
aI0
aI1
aI0
aI1
aI0
aI1
aI0
aI1
aI0
aI1
aI0
aI1
aI0
aI1
aI0
aI1
aI0
aI1
aI0
aI1
aI0
aI1
aI0
aI1
aI0
aI1
aI0
aI1
aI0
aI1
aI0
aI1
aI0
aI1
aI0
aI1
aI0
aI1
aI0
aI1
aI0
aI1
aI0
aI1
aI0
aI1
aI0
aI1
aI0
aI1
aI0
aI1
aI0
aI1
aI0
aI1
aI0
aI1
aI0
aI1
aI0
aI1
aI0
aI1
aI0
aI1
aI0
aI1
aI0
aI1
aI0
aI1
aI0
aI1
aI0
aI1
aI0
aI1
aI0
aI1
aI0
aI1
aI0
aI1
aI0
aI1
aI0
aI1
aI0
aI1
aI0
aI1
aI0
aI1
aI0
aI1
aI0
aI1
aI0
aI1
aI0
aI1
aI0
aI1
aI0
aI1
aI0
aI1
aI0
aI1
aI0
aI1
aI0
aI1
aI0
aI1
aI0
aI1
aI0
aI1
aI0
aI1
aI0
aI1
aI0
aI1
aI0
aI1
aI0
aI1
aI0
aI1
aI0
aI1
aI0
aI1
aI0
aI1
aI0
aI1
aI0
aI1
aI0
aI1
aI0
aI1
aI0
aI1
aI0
aI1
aI0
aI1
aI0
aI1
aI0
aI1
aI0
aI1
aI0
aI1
aI0
aI1
aI0
aI1
aI0
aI1
aI0
aI1
aI0
aI1
aI0
aI1
aI0
aI1
aI0
aI1
aI0
aI1
aI0
aI1
aI0
aI1
aI0
aI1
aI0
aI1
aI0
aI1
aI0
aI1
aI0
aI1
aI0
aI1
aI0
aI1
aI0
aI1
aI0
aI1
aI0
aI1
aI0
aI1
aI0
aI1
aI0
aI1
aI0
aI1
aI0
aI1
aI0
aI1
aI0
aI1
aI0
aI1
aI0
aI1
aI0
aI1
aI0
aI1
aI0
aI1
aI0
aI1
aI0
aI1
aI0
aI1
aI0
aI1
aI0
aI1
aI0
aI1
aI0
aI1
aI0
aI1
aI0
aI1
aI0
aI1
aI0
aI1
aI0
aI1
aI0
aI1
aI0
aI1
aI0
aI1
aI0
aI1
aI0
aI1
aI0
aI1
aI0
aI1
aI0
aI1
aI0
aI1
aI0
aI1
aI0
aI1
aI0
aI1
aI0
aI1
aI0
aI1
aI0
aI1
aI0
aI1
aI0
aI1
aI0
aI1
aI0
aI1
aI0
aI1
aI0
aI1
aI0
aI1
aI0
aI1
aI0
aI1
aI0
aI1
aI0
aI1
aI0
aI1
aI0
aI1
aI0
aI1
aI0
aI1
aI0
aI1
aI0
aI1
aI0
aI1
aI0
aI1
aI0
aI1
aI0
aI1
aI0
aI1
aI0
aI1
aI0
aI1
aI0
aI1
aI0
aI1
aI0
aI1
aI0
aI1
aI0
aI1
aI0
aI1
aI0
aI1
aI0
aI1
aI0
aI1
aI0
aI1
aI0
aI1
aI0
aI1
aI0
aI1
aI0
aI1
aI0
aI1
aI0
aI1
aI0
aI1
aI0
aI1
aI0
aI1
aI0
aI1
aI0
aI1
aI0
aI1
aI0
aI1
aI0
aI1
aI0
aI1
aI0
aI1
aI0
aI1
aI0
aI1
aI0
aI1
aI0
aI1
aI0
aI1
aI0
aI1
aI0
aI1
aI0
aI1
aI0
aI1
aI0
aI1
aI0
aI1
aI0
aI1
aI0
aI1
aI0
aI1
aI0
aI1
aI0
aI1
aI0
aI1
aI0
aI1
aI0
aI1
aI0
aI1
aI0
aI1
aI0
aI1
aI0
aI1
aI0
aI1
aI0
aI1
aI0
aI1
aI0
aI1
aI0
aI1
aI0
aI1
aI0
aI1
aI0
aI1
aI0
aI1
aI0
aI1
aI0
aI1
aI0
aI1
aI0
aI1
aI0
aI1
aI0
aI1
aI0
aI1
aI0
aI1
aI0
aI1
aI0
aI1
aI0
aI1
aI0
aI1
aI0
aI1
aI0
aI1
aI0
aI1
aI0
aI1
aI0
aI1
aI0
aI1
aI0
aI1
aI0
aI1
aI0
aI1
aI0
aI1
aI0
aI1
aI0
aI1
aI0
aI1
aI0
aI1
aI0
aI1
aI0
aI1
aI0
aI1
aI0
aI1
aI0
aI1
aI0
aI1
aI0
aI1
aI0
aI1
aI0
aI1
aI0
aI1
aI0
aI1
aI0
aI1
aI0
aI1
aI0
aI1
aI0
aI1
aI0
aI1
aI0
aI1
aI0
aI1
aI0
aI1
aI0
aI1
aI0
aI1
aI0
aI1
aI0
aI1
aI0
aI1
aI0
aI1
aI0
aI1
aI0
aI1
aI0
aI1
aI0
aI1
aI0
aI1
aI0
aI1
aI0
aI1
aI0
aI1
aI0
aI1
aI0
aI1
aI0
aI1
aI0
aI1
aI0
aI1
aI0
aI1
aI0
aI1
aI0
aI1
aI0
aI1
aI0
aI1
aI0
aI1
aI0
aI1
aI0
aI1
aI0
aI1
aI0
aI1
aI0
aI1
aI0
aI1
aI0
aI1
aI0
aI1
aI0
aI1
aI0
aI1
aI0
aI1
aI0
aI1
aI0
aI1
aI0
aI1
aI0
aI1
aI0
aI1
aI0
aI1
aI0
aI1
aI0
aI1
aI0
aI1
aI0
aI1
aI0
aI1
aI0
aI1
aI0
aI1
aI0
aI1
aI0
aI1
aI0
aI1
aI0
aI1
aI0
aI1
aI0
aI1
aI0
aI1
aI0
aI1
aI0
aI1
aI0
aI1
aI0
aI1
aI0
aI1
aI0
aI1
aI0
aI1
aI0
aI1
aI0
aI1
aI0
aI1
aI0
aI1
aI0
aI1
aI0
aI1
aI0
aI1
aI0
aI1
aI0
aI1
aI0
aI1
aI0
aI1
aI0
aI1
aI0
aI1
aI0
aI1
aI0
aI1
aI0
aI1
aI0
aI1
aI0
aI1
aI0
aI1
aI0
aI1
aI0
aI1
aI0
aI1
aI0
aI1
aI0
aI1
aI0
aI1
aI0
aI1
aI0
aI1
aI0
aI1
aI0
aI1
aI0
aI1
aI0
aI1
aI0
aI1
aI0
aI1
aI0
aI1
aI0
aI1
aI0
aI1
aI0
aI1
aI0
aI1
aI0
aI1
aI0
aI1
aI0
aI1
aI0
aI1
aI0
aI1
aI0
aI1
aI0
aI1
aI0
aI1
aI0
aI1
aI0
aI1
aI0
aI1
aI0
aI1
aI0
aI1
aI0
aI1
aI0
aI1
aI0
aI1
aI0
aI1
aI0
aI1
aI0
aI1
aI0
aI1
aI0
aI1
aI0
aI1
aI0
aI1
aI0
aI1
aI0
aI1
aI0
aI1
aI0
aI1
aI0
aI1
aI0
aI1
aI0
aI1
aI0
aI1
aI0
aI1
aI0
aI1
aI0
aI1
aI0
aI1
aI0
aI1
aI0
aI1
aI0
aI1
aI0
aI1
aI0
aI1
aI0
aI1
aI0
aI1
aI0
aI1
aI0
aI1
aI0
aI1
aI0
aI1
aI0
aI1
aI0
aI1
aI0
aI1
aI0
aI1
aI0
aI1
aI0
aI1
aI0
aI1
aI0
aI1
aI0
aI1
aI0
aI1
aI0
aI1
aI0
aI1
aI0
aI1
aI0
aI1
aI0
aI1
aI0
aI1
aI0
aI1
aI0
aI1
aI0
aI1
aI0
aI1
aI0
aI1
aI0
aI1
aI0
aI1
aI0
aI1
aI0
aI1
aI0
aI1
aI0
aI1
aI0
aI1
aI0
aI1
aI0
aI1
aI0
aI1
aI0
aI1
aI0
aI1
aI0
aI1
aI0
aI1
aI0
aI1
aI0
aI1
aI0
aI1
aI0
aI1
aI0
aI1
aI0
aI1
aI0
aI1
aI0
aI1
aI0
aI1
aI0
aI1
aI0
aI1
aI0
aI1
aI0
aI1
aI0
aI1
aI0
aI1
aI0
aI1
aI0
aI1
aI0
aI1
aI0
aI1
aI0
aI1
aI0
aI1
aI0
aI1
aI0
aI1
aI0
aI1
aI0
aI1
aI0
aI1
aI0
aI1
aI0
aI1
aI0
aI1
aI0
aI1
aI0
aI1
aI0
aI1
aI0
aI1
aI0
aI1
aI0
aI1
aI0
aI1
aI0
aI1
aI0
aI1
aI0
aI1
aI0
aI1
aI0
aI1
aI0
aI1
aI0
aI1
aI0
aI1
aI0
aI1
aI0
aI1
aI0
aI1
aI0
aI1
aI0
aI1
aI0
aI1
aI0
aI1
aI0
aI1
aI0
aI1
aI0
aI1
aI0
aI1
aI0
aI1
aI0
aI1
aI0
aI1
aI0
aI1
aI0
aI1
aI0
aI1
aI0
aI1
aI0
aI1
aI0
aI1
aI0
aI1
aI0
aI1
aI0
aI1
aI0
aI1
aI0
aI1
aI0
aI1
aI0
aI1
aI0
aI1
aI0
aI1
aI0
aI1
aI0
aI1
aI0
aI1
aI0
aI1
aI0
aI1
aI0
aI1
aI0
aI1
aI0
aI1
aI0
aI1
aI0
aI1
aI0
aI1
aI0
aI1
aI0
aI1
aI0
aI1
aI0
aI1
aI0
aI1
aI0
aI1
aI0
aI1
aI0
aI1
aI0
aI1
aI0
aI1
aI0
aI1
aI0
aI1
aI0
aI1
aI0
aI1
aI0
aI1
aI0
aI1
aI0
aI1
aI0
aI1
aI0
aI1
aI0
aI1
aI0
aI1
aI0
aI1
aI0
aI1
aI0
aI1
aI0
aI1
aI0
aI1
aI0
aI1
aI0
aI1
aI0
aI1
aI0
aI1
aI0
aI1
aI0
aI1
aI0
aI1
aI0
aI1
aI0
aI1
aI0
aI1
aI0
aI1
aI0
aI1
aI0
aI1
aI0
aI1
aI0
aI1
aI0
aI1
aI0
aI1
aI0
aI1
aI0
aI1
aI0
aI1
aI0
aI1
aI0
aI1
aI0
aI1
aI0
aI1
aI0
aI1
aI0
aI1
aI0
aI1
aI0
aI1
aI0
aI1
aI0
aI1
aI0
aI1
aI0
aI1
aI0
aI1
aI0
aI1
aI0
aI1
aI0
aI1
aI0
aI1
aI0
aI1
aI0
aI1
aI0
aI1
aI0
aI1
aI0
aI1
aI0
aI1
aI0
aI1
aI0
aI1
aI0
aI1
aI0
aI1
aI0
aI1
aI0
aI1
aI0
aI1
aI0
aI1
aI0
aI1
aI0
aI1
aI0
aI1
aI0
aI1
aI0
aI1
aI0
aI1
aI0
aI1
aI0
aI1
aI0
aI1
aI0
aI1
aI0
aI1
aI0
aI1
aI0
aI1
aI0
aI1
aI0
aI1
aI0
aI1
aI0
aI1
aI0
aI1
aI0
aI1
aI0
aI1
aI0
asg18
S'thuleanperspective2017_archive.torrent'
p1187
sg20
F-1
sg21
S'/media/fgloblek/lacie'
p1188
sg23
F1587679238.9633
sg24
I2361199
sg25
S'3671934897046c5d76ee0fcaee18820114f913da'
p1189
sg27
I01
sg28
I00
sg29
I00
sg30
(lp1190
(dp1191
S'send_stats'
p1192
I01
sS'fails'
p1193
I0
sS'verified'
p1194
I00
sS'scrape_incomplete'
p1195
I-1
sS'min_announce'
p1196
NsS'scrape_downloaded'
p1197
I-1
sS'url'
p1198
S'http://bt1.archive.org:6969/announce'
p1199
sS'last_error'
p1200
(dp1201
S'category'
p1202
S'system'
p1203
sS'value'
p1204
I0
ssS'fail_limit'
p1205
I0
sS'next_announce'
p1206
NsS'complete_sent'
p1207
I00
sS'source'
p1208
I1
sS'trackerid'
p1209
S''
sS'start_sent'
p1210
I00
sS'tier'
p1211
I0
sS'scrape_complete'
p1212
I-1
sS'message'
p1213
S''
sS'updating'
p1214
I00
sa(dp1215
S'send_stats'
p1216
I01
sS'fails'
p1217
I0
sS'verified'
p1218
I00
sS'scrape_incomplete'
p1219
I-1
sS'min_announce'
p1220
NsS'scrape_downloaded'
p1221
I-1
sS'url'
p1222
S'http://bt2.archive.org:6969/announce'
p1223
sS'last_error'
p1224
(dp1225
S'category'
p1226
S'system'
p1227
sS'value'
p1228
I0
ssS'fail_limit'
p1229
I0
sS'next_announce'
p1230
NsS'complete_sent'
p1231
I00
sS'source'
p1232
I1
sS'trackerid'
p1233
S''
sS'start_sent'
p1234
I00
sS'tier'
p1235
I1
sS'scrape_complete'
p1236
I-1
sS'message'
p1237
S''
sS'updating'
p1238
I00
sasg56
Nsg57
I00
sg58
F2
sg59
I00
sba(ideluge.core.torrentmanager
TorrentState
p1239
(dp1240
g7
F-1
sg8
S'/home/fgloblek/Downloads'
p1241
sg10
I01
sg11
I-1
sg12
I00
sg13
I-1
sg14
I00
sg15
I21
sg16
(lp1242
I4
aI4
aI4
aI4
aI4
aI4
aI4
aI4
aI4
aI4
aI4
aI4
aI4
aI4
asg18
S'a4a6f93f79add1fbf39ec0b48fa5c0588c2256c0'
p1243
sg20
F-1
sg21
S'/media/fgloblek/lacie'
p1244
sg23
F1583954275.288475
sg24
I46029774
sg25
S'a4a6f93f79add1fbf39ec0b48fa5c0588c2256c0'
p1245
sg27
I01
sg28
I00
sg29
I00
sg30
(lp1246
(dp1247
S'send_stats'
p1248
I01
sS'fails'
p1249
I0
sS'verified'
p1250
I00
sS'scrape_incomplete'
p1251
I-1
sS'min_announce'
p1252
NsS'scrape_downloaded'
p1253
I-1
sS'url'
p1254
S'http://bt2.t-ru.org/ann?magnet'
p1255
sS'last_error'
p1256
(dp1257
S'category'
p1258
S'system'
p1259
sS'value'
p1260
I0
ssS'fail_limit'
p1261
I0
sS'next_announce'
p1262
NsS'complete_sent'
p1263
I00
sS'source'
p1264
I4
sS'trackerid'
p1265
S''
sS'start_sent'
p1266
I00
sS'tier'
p1267
I0
sS'scrape_complete'
p1268
I-1
sS'message'
p1269
S''
sS'updating'
p1270
I00
sasg56
Nsg57
I00
sg58
F2
sg59
I01
sba(ideluge.core.torrentmanager
TorrentState
p1271
(dp1272
g7
F-1
sg8
S'/home/fgloblek/Downloads'
p1273
sg10
I01
sg11
I-1
sg12
I00
sg13
I-1
sg14
I00
sg15
I11
sg16
(lp1274
I4
asg18
S'2a708fe5abd10e21dbf27ebb385505bb9e95d6ba'
p1275
sg20
F-1
sg21
S'/media/fgloblek/lacie'
p1276
sg23
F1577896024.4815021
sg24
I0
sg25
S'2a708fe5abd10e21dbf27ebb385505bb9e95d6ba'
p1277
sg27
I01
sg28
I00
sg29
I00
sg30
(lp1278
(dp1279
S'send_stats'
p1280
I01
sS'fails'
p1281
I0
sS'verified'
p1282
I00
sS'scrape_incomplete'
p1283
I-1
sS'min_announce'
p1284
NsS'scrape_downloaded'
p1285
I-1
sS'url'
p1286
S'http://bt2.t-ru.org/ann?magnet'
p1287
sS'last_error'
p1288
(dp1289
S'category'
p1290
S'system'
p1291
sS'value'
p1292
I0
ssS'fail_limit'
p1293
I0
sS'next_announce'
p1294
NsS'complete_sent'
p1295
I00
sS'source'
p1296
I4
sS'trackerid'
p1297
S''
sS'start_sent'
p1298
I00
sS'tier'
p1299
I0
sS'scrape_complete'
p1300
I-1
sS'message'
p1301
S''
sS'updating'
p1302
I00
sasg56
Nsg57
I00
sg58
F2
sg59
I01
sba(ideluge.core.torrentmanager
TorrentState
p1303
(dp1304
g7
F-1
sg8
S'/home/fgloblek/Downloads'
p1305
sg10
I01
sg11
I-1
sg12
I00
sg13
I-1
sg14
I00
sg15
I46
sg16
(lp1306
sg18
S'4a8b2f959b2cb5964539a878df8b4ca6adbe86cf'
p1307
sg20
F-1
sg21
S'/media/fgloblek/lacie'
p1308
sg23
F1577894836.7893319
sg24
I0
sg25
S'4a8b2f959b2cb5964539a878df8b4ca6adbe86cf'
p1309
sg27
I01
sg28
I00
sg29
I00
sg30
(lp1310
(dp1311
S'send_stats'
p1312
I01
sS'fails'
p1313
I0
sS'verified'
p1314
I00
sS'scrape_incomplete'
p1315
I-1
sS'min_announce'
p1316
NsS'scrape_downloaded'
p1317
I-1
sS'url'
p1318
S'http://bt.t-ru.org/ann?magnet'
p1319
sS'last_error'
p1320
(dp1321
S'category'
p1322
S'system'
p1323
sS'value'
p1324
I0
ssS'fail_limit'
p1325
I0
sS'next_announce'
p1326
NsS'complete_sent'
p1327
I00
sS'source'
p1328
I4
sS'trackerid'
p1329
S''
sS'start_sent'
p1330
I00
sS'tier'
p1331
I0
sS'scrape_complete'
p1332
I-1
sS'message'
p1333
S''
sS'updating'
p1334
I00
sasg56
S'magnet:?xt=urn:btih:4A8B2F959B2CB5964539A878DF8B4CA6ADBE86CF&tr=http%3A%2F%2Fbt.t-ru.org%2Fann%3Fmagnet&dn=Tao-chung%20Yao%2C%20Yuehua%20Liu%20-%20Integrated%20Chinese%20Course%20%5B2005%2C%20PDF%5D'
p1335
sg57
I00
sg58
F2
sg59
I00
sba(ideluge.core.torrentmanager
TorrentState
p1336
(dp1337
g7
F-1
sg8
S'/home/fgloblek/Downloads'
p1338
sg10
I00
sg11
I-1
sg12
I00
sg13
I-1
sg14
I00
sg15
I-1
sg16
(lp1339
I4
aI4
aI4
aI4
aI4
aI4
aI4
aI4
aI4
aI4
aI4
aI4
aI4
aI4
aI4
aI4
aI4
aI4
aI4
aI4
aI4
aI4
aI4
aI4
aI4
aI4
aI4
aI4
aI4
aI4
aI4
aI4
aI4
aI4
aI4
aI4
aI4
aI4
aI4
aI4
aI4
aI4
aI4
aI4
aI4
aI4
aI4
aI4
aI4
aI4
aI4
aI4
aI4
aI4
aI4
aI4
aI4
aI4
aI4
aI4
aI4
aI4
aI4
aI4
aI4
aI4
aI4
aI4
aI4
aI4
aI4
aI4
aI4
aI4
aI4
aI4
aI4
aI4
aI4
aI4
aI4
aI4
aI4
aI4
aI4
aI4
aI4
aI4
aI4
aI4
aI4
aI4
aI4
aI4
aI4
aI4
aI4
aI4
aI4
aI4
aI4
aI4
asg18
S'86a86d0c3c0d4c457e50c79f8d51123c04d03f84'
p1340
sg20
F-1
sg21
S'/home/fgloblek/Downloads'
p1341
sg23
F1601026455.7352369
sg24
I0
sg25
S'86a86d0c3c0d4c457e50c79f8d51123c04d03f84'
p1342
sg27
I01
sg28
I00
sg29
I00
sg30
(lp1343
(dp1344
S'send_stats'
p1345
I01
sS'fails'
p1346
I0
sS'verified'
p1347
I00
sS'scrape_incomplete'
p1348
I-1
sS'min_announce'
p1349
NsS'source'
p1350
I4
sS'url'
p1351
S'udp://tracker.openbittorrent.com:80'
p1352
sS'last_error'
p1353
(dp1354
S'category'
p1355
S'system'
p1356
sS'value'
p1357
I0
ssS'fail_limit'
p1358
I0
sS'next_announce'
p1359
NsS'complete_sent'
p1360
I00
sS'scrape_downloaded'
p1361
I-1
sS'trackerid'
p1362
S''
sS'start_sent'
p1363
I00
sS'tier'
p1364
I0
sS'scrape_complete'
p1365
I-1
sS'message'
p1366
S''
sS'updating'
p1367
I00
sa(dp1368
S'send_stats'
p1369
I01
sS'fails'
p1370
I0
sS'verified'
p1371
I00
sS'scrape_incomplete'
p1372
I-1
sS'min_announce'
p1373
NsS'source'
p1374
I4
sS'url'
p1375
S'udp://tracker.opentrackr.org:1337/announce'
p1376
sS'last_error'
p1377
(dp1378
S'category'
p1379
S'system'
p1380
sS'value'
p1381
I0
ssS'fail_limit'
p1382
I0
sS'next_announce'
p1383
NsS'complete_sent'
p1384
I00
sS'scrape_downloaded'
p1385
I-1
sS'trackerid'
p1386
S''
sS'start_sent'
p1387
I00
sS'tier'
p1388
I1
sS'scrape_complete'
p1389
I-1
sS'message'
p1390
S''
sS'updating'
p1391
I00
sasg56
Nsg57
I00
sg58
F2
sg59
I01
sba(ideluge.core.torrentmanager
TorrentState
p1392
(dp1393
g7
F-1
sg8
S'/home/fgloblek/Downloads'
p1394
sg10
I01
sg11
I-1
sg12
I00
sg13
I-1
sg14
I00
sg15
I32
sg16
(lp1395
I4
asg18
S'8fb7261ec4d2b4741a2a6a4e53cc3d3bd054a774'
p1396
sg20
F-1
sg21
S'/media/fgloblek/lacie'
p1397
sg23
F1591372105.16435
sg24
I0
sg25
S'8fb7261ec4d2b4741a2a6a4e53cc3d3bd054a774'
p1398
sg27
I01
sg28
I00
sg29
I00
sg30
(lp1399
(dp1400
S'send_stats'
p1401
I01
sS'fails'
p1402
I0
sS'verified'
p1403
I00
sS'scrape_incomplete'
p1404
I-1
sS'min_announce'
p1405
NsS'source'
p1406
I4
sS'url'
p1407
S'http://bt4.t-ru.org/ann?magnet'
p1408
sS'last_error'
p1409
(dp1410
S'category'
p1411
S'system'
p1412
sS'value'
p1413
I0
ssS'fail_limit'
p1414
I0
sS'next_announce'
p1415
NsS'complete_sent'
p1416
I00
sS'scrape_downloaded'
p1417
I-1
sS'trackerid'
p1418
S''
sS'start_sent'
p1419
I00
sS'tier'
p1420
I0
sS'scrape_complete'
p1421
I-1
sS'message'
p1422
S''
sS'updating'
p1423
I00
sasg56
Nsg57
I00
sg58
F2
sg59
I00
sba(ideluge.core.torrentmanager
TorrentState
p1424
(dp1425
g7
F-1
sg8
S'/home/fgloblek/Downloads'
p1426
sg10
I01
sg11
I-1
sg12
I00
sg13
I-1
sg14
I00
sg15
I30
sg16
(lp1427
sg18
S'40955807f0ef9ca60d499b4cf78c6297d34dadd4'
p1428
sg20
F-1
sg21
S'/home/fgloblek/Downloads'
p1429
sg23
F1596484744.8059239
sg24
I0
sg25
S'40955807f0ef9ca60d499b4cf78c6297d34dadd4'
p1430
sg27
I01
sg28
I00
sg29
I00
sg30
(lp1431
(dp1432
S'send_stats'
p1433
I01
sS'fails'
p1434
I0
sS'verified'
p1435
I00
sS'scrape_incomplete'
p1436
I-1
sS'min_announce'
p1437
NsS'source'
p1438
I4
sS'url'
p1439
S'udp://tracker.openbittorrent.com:80'
p1440
sS'last_error'
p1441
(dp1442
S'category'
p1443
S'system'
p1444
sS'value'
p1445
I0
ssS'fail_limit'
p1446
I0
sS'next_announce'
p1447
NsS'complete_sent'
p1448
I00
sS'scrape_downloaded'
p1449
I-1
sS'trackerid'
p1450
S''
sS'start_sent'
p1451
I00
sS'tier'
p1452
I0
sS'scrape_complete'
p1453
I-1
sS'message'
p1454
S''
sS'updating'
p1455
I00
sa(dp1456
S'send_stats'
p1457
I01
sS'fails'
p1458
I0
sS'verified'
p1459
I00
sS'scrape_incomplete'
p1460
I-1
sS'min_announce'
p1461
NsS'source'
p1462
I4
sS'url'
p1463
S'udp://tracker.opentrackr.org:1337/announce'
p1464
sS'last_error'
p1465
(dp1466
S'category'
p1467
S'system'
p1468
sS'value'
p1469
I0
ssS'fail_limit'
p1470
I0
sS'next_announce'
p1471
NsS'complete_sent'
p1472
I00
sS'scrape_downloaded'
p1473
I-1
sS'trackerid'
p1474
S''
sS'start_sent'
p1475
I00
sS'tier'
p1476
I1
sS'scrape_complete'
p1477
I-1
sS'message'
p1478
S''
sS'updating'
p1479
I00
sasg56
S'magnet:?xt=urn:btih:40955807f0ef9ca60d499b4cf78c6297d34dadd4&dn=Knjige+na+hrvatskom+jeziku&tr=udp://tracker.openbittorrent.com:80&tr=udp://tracker.opentrackr.org:1337/announce'
p1480
sg57
I00
sg58
F2
sg59
I00
sba(ideluge.core.torrentmanager
TorrentState
p1481
(dp1482
g7
F-1
sg8
S'/home/fgloblek/Downloads'
p1483
sg10
I00
sg11
I-1
sg12
I00
sg13
I-1
sg14
I00
sg15
I0
sg16
(lp1484
I4
asg18
S'392d9767789f7d150b9e42a07e9f9be3f5959425'
p1485
sg20
F-1
sg21
S'/media/fgloblek/lacie'
p1486
sg23
F1612196473.3738401
sg24
I0
sg25
g1485
sg27
I01
sg28
I00
sg29
I00
sg30
(lp1487
(dp1488
S'send_stats'
p1489
I01
sS'fails'
p1490
I0
sS'verified'
p1491
I00
sS'scrape_incomplete'
p1492
I-1
sS'min_announce'
p1493
NsS'source'
p1494
I4
sS'url'
p1495
S'http://bt2.t-ru.org/ann?magnet'
p1496
sS'last_error'
p1497
(dp1498
S'category'
p1499
S'system'
p1500
sS'value'
p1501
I0
ssS'fail_limit'
p1502
I0
sS'next_announce'
p1503
NsS'complete_sent'
p1504
I00
sS'scrape_downloaded'
p1505
I-1
sS'trackerid'
p1506
S''
sS'start_sent'
p1507
I00
sS'tier'
p1508
I0
sS'scrape_complete'
p1509
I-1
sS'message'
p1510
S''
sS'updating'
p1511
I00
sasg56
S'magnet:?xt=urn:btih:392D9767789F7D150B9E42A07E9F9BE3F5959425&tr=http%3A%2F%2Fbt2.t-ru.org%2Fann%3Fmagnet&dn=%5BVIDEO%5D%20%D0%91%D0%B5%D0%B3%D1%83%D1%89%D0%B8%D0%B9%20%D0%BF%D0%BE%20%D0%BB%D0%B5%D0%B7%D0%B2%D0%B8%D1%8E%20%2F%20Blade%20Runner%20(%D0%A0%D0%B8%D0%B4%D0%BB%D0%B8%20%D0%A1%D0%BA%D0%BE%D1%82%D1%82%20%2F%20Ridley%20Scott)%20%5B1982%2C%20%D0%B4%D1%80%D0%B0%D0%BC%D0%B0%2C%20%D1%82%D1%80%D0%B8%D0%BB%D0%BB%D0%B5%D1%80%2C%20%D1%84%D0%B0%D0%BD%D1%82%D0%B0%D1%81%D1%82%D0%B8%D0%BA%D0%B0%2C%20BDRip%5D%20%5BMP4%2C%201280x%5D%20%5B%D0%A4%D0%B8%D0%BD%D0%B0%D0%BB%D1%8C%D0%BD%D0%B0%D1%8F%20%D0%B2%D0%B5%D1%80%D1%81%D0%B8%D1%8F%20%2F%20Final'
p1512
sg57
I00
sg58
F2
sg59
I00
sba(ideluge.core.torrentmanager
TorrentState
p1513
(dp1514
g7
I-1
sg8
S'/home/fgloblek/Downloads'
p1515
sg10
I01
sg11
I-1
sg12
I00
sg13
I-1
sg14
I00
sg15
I33
sg16
(lp1516
I4
asg18
S'a5b31e368da91c0f0c0eca82454d79e407af5fdc'
p1517
sg20
F-1
sg21
S'/home/fgloblek/Videos'
p1518
sg23
F1588439745.1093299
sg24
I0
sg25
S'a5b31e368da91c0f0c0eca82454d79e407af5fdc'
p1519
sg27
I01
sg28
I00
sg29
I00
sg30
(lp1520
(dp1521
S'send_stats'
p1522
I01
sS'fails'
p1523
I0
sS'verified'
p1524
I00
sS'scrape_incomplete'
p1525
I-1
sS'min_announce'
p1526
NsS'source'
p1527
I4
sS'url'
p1528
S'http://bt3.t-ru.org/ann?magnet'
p1529
sS'last_error'
p1530
(dp1531
S'category'
p1532
S'system'
p1533
sS'value'
p1534
I0
ssS'fail_limit'
p1535
I0
sS'next_announce'
p1536
NsS'complete_sent'
p1537
I00
sS'scrape_downloaded'
p1538
I-1
sS'trackerid'
p1539
S''
sS'start_sent'
p1540
I00
sS'tier'
p1541
I0
sS'scrape_complete'
p1542
I-1
sS'message'
p1543
S''
sS'updating'
p1544
I00
sasg56
Nsg57
I00
sg58
F2
sg59
I00
sba(ideluge.core.torrentmanager
TorrentState
p1545
(dp1546
g7
F-1
sg8
S'/home/fgloblek/Downloads'
p1547
sg10
I00
sg11
I-1
sg12
I00
sg13
I-1
sg14
I00
sg15
I1
sg16
(lp1548
I4
asg18
S'65da1466d99ea93862c0ba4a4aeef308bd9d61b6'
p1549
sg20
F-1
sg21
S'/media/fgloblek/lacie'
p1550
sg23
F1612196387.219456
sg24
I0
sg25
g1549
sg27
I01
sg28
I00
sg29
I00
sg30
(lp1551
(dp1552
S'send_stats'
p1553
I01
sS'fails'
p1554
I0
sS'verified'
p1555
I00
sS'scrape_incomplete'
p1556
I-1
sS'min_announce'
p1557
NsS'source'
p1558
I4
sS'url'
p1559
S'http://bt.t-ru.org/ann?magnet'
p1560
sS'last_error'
p1561
(dp1562
S'category'
p1563
S'system'
p1564
sS'value'
p1565
I0
ssS'fail_limit'
p1566
I0
sS'next_announce'
p1567
NsS'complete_sent'
p1568
I00
sS'scrape_downloaded'
p1569
I-1
sS'trackerid'
p1570
S''
sS'start_sent'
p1571
I00
sS'tier'
p1572
I0
sS'scrape_complete'
p1573
I-1
sS'message'
p1574
S''
sS'updating'
p1575
I00
sasg56
S'magnet:?xt=urn:btih:65da1466d99ea93862c0ba4a4aeef308bd9d61b6&dn=%D0%91%D0%B5%D0%B3%D1%83%D1%89%D0%B8%D0%B9%20%D0%BF%D0%BE%20%D0%BB%D0%B5%D0%B7%D0%B2%D0%B8%D1%8E%202049%20%2F%20Blade%20Runner%202049%20%28%D0%94%D0%B5%D0%BD%D0%B8%20%D0%92%D0%B8%D0%BB%D1%8C%D0%BD%D1%91%D0%B2%20%2F%20Denis%20Villeneuve%29%20%5B2017,%20%D0%A1%D0%A8%D0%90,%20%D0%92%D0%B5%D0%BB%D0%B8%D0%BA%D0%BE%D0%B1%D1%80%D0%B8%D1%82%D0%B0%D0%BD%D0%B8%D1%8F,%20%D0%92%D0%B5%D0%BD%D0%B3%D1%80%D0%B8%D1%8F,%20%D0%9A%D0%B0%D0%BD%D0%B0%D0%B4%D0%B0,%20%D1%84%D0%B0%D0%BD%D1%82%D0%B0%D1%81%D1%82%D0%B8%D0%BA%D0%B0,%20%D1%82%D1%80%D0%B8%D0%BB%D0%BB%D0%B5%D1%80,%20%D0%B4%D1%80%D0%B0%D0%BC%D0%B0,%20&tr=http%3A%2F%2Fbt.t-ru.org%2Fann%3Fmagnet'
p1576
sg57
I00
sg58
F2
sg59
I00
sba(ideluge.core.torrentmanager
TorrentState
p1577
(dp1578
g7
I-1
sg8
S'/home/fgloblek/Downloads'
p1579
sg10
I00
sg11
I-1
sg12
I00
sg13
I-1
sg14
I00
sg15
I2
sg16
(lp1580
I4
aI4
aI4
aI4
asg18
S'3dc2cc7ba61c691747a2c913fc09828e1b10e741'
p1581
sg20
F-1
sg21
S'/media/fgloblek/lacie'
p1582
sg23
F1612047715.009939
sg24
I0
sg25
g1581
sg27
I00
sg28
I00
sg29
I00
sg30
(lp1583
(dp1584
S'send_stats'
p1585
I01
sS'fails'
p1586
I0
sS'verified'
p1587
I00
sS'scrape_incomplete'
p1588
I-1
sS'min_announce'
p1589
NsS'source'
p1590
I4
sS'url'
p1591
S'http://bt3.t-ru.org/ann?magnet'
p1592
sS'last_error'
p1593
(dp1594
S'category'
p1595
S'system'
p1596
sS'value'
p1597
I0
ssS'fail_limit'
p1598
I0
sS'next_announce'
p1599
NsS'complete_sent'
p1600
I00
sS'scrape_downloaded'
p1601
I-1
sS'trackerid'
p1602
S''
sS'start_sent'
p1603
I00
sS'tier'
p1604
I0
sS'scrape_complete'
p1605
I-1
sS'message'
p1606
S''
sS'updating'
p1607
I00
sasg56
S'magnet:?xt=urn:btih:3dc2cc7ba61c691747a2c913fc09828e1b10e741&dn=%D0%91%D0%B5%D0%B3%D1%83%D1%89%D0%B8%D0%B9%20%D0%BF%D0%BE%20%D0%BB%D0%B5%D0%B7%D0%B2%D0%B8%D1%8E%202049%20%2F%20Blade%20Runner%202049%20%28%D0%94%D0%B5%D0%BD%D0%B8%20%D0%92%D0%B8%D0%BB%D1%8C%D0%BD%D1%91%D0%B2%20%2F%20Denis%20Villeneuve%29%20%5B2017,%20%D0%A1%D0%A8%D0%90,%20%D0%92%D0%B5%D0%BB%D0%B8%D0%BA%D0%BE%D0%B1%D1%80%D0%B8%D1%82%D0%B0%D0%BD%D0%B8%D1%8F,%20%D0%92%D0%B5%D0%BD%D0%B3%D1%80%D0%B8%D1%8F,%20%D0%9A%D0%B0%D0%BD%D0%B0%D0%B4%D0%B0,%20%D0%A4%D0%B0%D0%BD%D1%82%D0%B0%D1%81%D1%82%D0%B8%D0%BA%D0%B0,%20%D0%A2%D1%80%D0%B8%D0%BB%D0%BB%D0%B5%D1%80,%20%D0%94%D1%80%D0%B0%D0%BC%D0%B0,%20&tr=http%3A%2F%2Fbt3.t-ru.org%2Fann%3Fmagnet'
p1608
sg57
I00
sg58
F2
sg59
I00
sba(ideluge.core.torrentmanager
TorrentState
p1609
(dp1610
g7
F-1
sg8
S'/home/fgloblek/Downloads'
p1611
sg10
I01
sg11
I-1
sg12
I00
sg13
I-1
sg14
I00
sg15
I43
sg16
(lp1612
sg18
S'f7d816c36fc04013f749364018b8c98e3c7c73d4'
p1613
sg20
F-1
sg21
S'/media/fgloblek/lacie'
p1614
sg23
F1577894806.8345029
sg24
I0
sg25
S'f7d816c36fc04013f749364018b8c98e3c7c73d4'
p1615
sg27
I01
sg28
I00
sg29
I00
sg30
(lp1616
(dp1617
S'send_stats'
p1618
I01
sS'fails'
p1619
I0
sS'verified'
p1620
I00
sS'scrape_incomplete'
p1621
I-1
sS'min_announce'
p1622
NsS'scrape_downloaded'
p1623
I-1
sS'url'
p1624
S'http://bt4.t-ru.org/ann?magnet'
p1625
sS'last_error'
p1626
(dp1627
S'category'
p1628
S'system'
p1629
sS'value'
p1630
I0
ssS'fail_limit'
p1631
I0
sS'next_announce'
p1632
NsS'complete_sent'
p1633
I00
sS'source'
p1634
I4
sS'trackerid'
p1635
S''
sS'start_sent'
p1636
I00
sS'tier'
p1637
I0
sS'scrape_complete'
p1638
I-1
sS'message'
p1639
S''
sS'updating'
p1640
I00
sasg56
S'magnet:?xt=urn:btih:F7D816C36FC04013F749364018B8C98E3C7C73D4&tr=http%3A%2F%2Fbt4.t-ru.org%2Fann%3Fmagnet&dn=%D0%93%D1%80%D1%83%D0%BF%D0%BF%D0%B0%20%D0%B0%D0%B2%D1%82%D0%BE%D1%80%D0%BE%D0%B2%20-%20%D0%A7%D0%B8%D1%82%D0%B0%D0%B5%D0%BC%20%D0%BF%D1%80%D0%B5%D1%81%D1%81%D1%83%20-%20%D0%B8%D0%B7%D1%83%D1%87%D0%B0%D0%B5%D0%BC%20%D0%BA%D0%B8%D1%82%D0%B0%D0%B9%D1%81%D0%BA%D0%B8%D0%B9%20%D1%8F%D0%B7%D1%8B%D0%BA%202%20%2F%20Du%20Baozhi%20xue%20Zhongwen%202%20%5B2004%2C%20PDF%2FMP3%2C%20CHN%5D'
p1641
sg57
I00
sg58
F2
sg59
I00
sba(ideluge.core.torrentmanager
TorrentState
p1642
(dp1643
g7
F-1
sg8
S'/home/fgloblek/Downloads'
p1644
sg10
I01
sg11
I-1
sg12
I00
sg13
I-1
sg14
I00
sg15
I40
sg16
(lp1645
I4
aI4
aI4
aI4
aI4
aI4
aI4
aI4
aI4
aI4
aI4
aI4
aI4
aI4
aI4
aI4
aI4
aI4
aI4
aI4
aI4
aI4
aI4
aI4
aI4
aI4
aI4
aI4
aI4
aI4
aI4
aI4
aI4
aI4
aI4
aI4
aI4
aI4
aI4
aI4
aI4
aI4
aI4
aI4
aI4
aI4
aI4
aI4
aI4
aI4
aI4
aI4
aI4
aI4
aI4
aI4
aI4
aI4
aI4
aI4
aI4
aI4
aI4
aI4
aI4
aI4
aI4
aI4
aI4
aI4
aI4
aI4
aI4
aI4
aI4
aI4
aI4
aI4
aI4
aI4
aI4
aI4
aI4
aI4
aI4
aI4
aI4
aI4
aI4
aI4
aI4
aI4
aI4
aI4
aI4
aI4
aI4
aI4
aI4
aI4
aI4
aI4
aI4
aI4
aI4
aI4
aI4
aI4
aI4
aI4
aI4
aI4
aI4
aI4
aI4
aI4
aI4
aI4
aI4
aI4
aI4
aI4
aI4
aI4
aI4
aI4
aI4
aI4
aI4
aI4
aI4
aI4
aI4
aI4
aI4
aI4
aI4
aI4
aI4
aI4
aI4
aI4
aI4
aI4
aI4
aI4
aI4
aI4
aI4
aI4
aI4
aI4
aI4
aI4
aI4
aI4
aI4
aI4
aI4
aI4
aI4
aI4
aI4
aI4
aI4
aI4
aI4
aI4
aI4
aI4
aI4
asg18
S'abf205a12dca2189be51f5e4cae630e19dd56344'
p1646
sg20
F-1
sg21
S'/media/fgloblek/lacie'
p1647
sg23
F1577894747.5520871
sg24
I0
sg25
S'abf205a12dca2189be51f5e4cae630e19dd56344'
p1648
sg27
I01
sg28
I00
sg29
I00
sg30
(lp1649
(dp1650
S'send_stats'
p1651
I01
sS'fails'
p1652
I0
sS'verified'
p1653
I00
sS'scrape_incomplete'
p1654
I-1
sS'min_announce'
p1655
NsS'scrape_downloaded'
p1656
I-1
sS'url'
p1657
S'http://bt.t-ru.org/ann?magnet'
p1658
sS'last_error'
p1659
(dp1660
S'category'
p1661
S'system'
p1662
sS'value'
p1663
I0
ssS'fail_limit'
p1664
I0
sS'next_announce'
p1665
NsS'complete_sent'
p1666
I00
sS'source'
p1667
I4
sS'trackerid'
p1668
S''
sS'start_sent'
p1669
I00
sS'tier'
p1670
I0
sS'scrape_complete'
p1671
I-1
sS'message'
p1672
S''
sS'updating'
p1673
I00
sasg56
Nsg57
I00
sg58
F2
sg59
I00
sba(ideluge.core.torrentmanager
TorrentState
p1674
(dp1675
g7
F-1
sg8
S'/home/fgloblek/Downloads'
p1676
sg10
I00
sg11
I-1
sg12
I00
sg13
I-1
sg14
I00
sg15
I3
sg16
(lp1677
I1
aI0
aI1
aI0
aI1
aI0
aI1
aI0
aI1
aI0
aI1
aI0
aI1
aI0
aI1
aI0
aI1
aI0
aI1
aI0
aI1
aI0
aI1
aI0
aI1
aI0
aI1
aI0
aI1
aI0
aI1
aI0
asg18
S'tmp0ULtMr'
p1678
sg20
F-1
sg21
S'/media/fgloblek/lacie'
p1679
sg23
F1612083175.7286789
sg24
I0
sg25
S'936b3d442570e3000959af659043b9fff08cad2f'
p1680
sg27
I01
sg28
I00
sg29
I00
sg30
(lp1681
(dp1682
S'tier'
p1683
I0
sS'url'
p1684
S'http://bt1.archive.org:6969/announce'
p1685
sS'next_announce'
p1686
NsS'min_announce'
p1687
Nsa(dp1688
g1683
I1
sg1684
S'http://bt2.archive.org:6969/announce'
p1689
sg1686
Nsg1687
Nsasg56
Nsg57
I00
sg58
F2
sg59
I00
sba(ideluge.core.torrentmanager
TorrentState
p1690
(dp1691
g7
F-1
sg8
S'/home/fgloblek/Downloads'
p1692
sg10
I01
sg11
I-1
sg12
I00
sg13
I-1
sg14
I00
sg15
I36
sg16
(lp1693
I1
aI0
aI1
aI0
aI1
aI0
aI1
aI0
aI1
aI0
aI1
aI0
aI1
aI0
aI1
aI0
aI1
aI0
aI1
aI0
aI1
aI0
aI1
aI0
aI1
aI0
aI1
aI0
aI1
aI0
aI1
aI0
aI1
aI0
aI1
aI0
aI1
aI0
aI1
aI0
aI1
aI0
aI1
aI0
aI1
aI0
aI1
aI0
aI1
aI0
aI1
aI0
aI1
aI0
aI1
aI0
aI1
aI0
aI1
aI0
aI1
aI0
aI1
aI0
aI1
aI0
aI1
aI0
aI1
aI0
aI1
aI0
aI1
aI0
aI1
aI0
aI1
aI0
aI1
aI0
aI1
aI0
aI1
aI0
aI1
aI0
aI1
aI0
aI1
aI0
aI1
aI0
aI1
aI0
aI1
aI0
aI1
aI0
aI1
aI0
aI1
aI0
aI1
aI0
aI1
aI0
aI1
aI0
aI1
aI0
aI1
aI0
aI1
aI0
aI1
aI0
aI1
aI0
aI1
aI0
aI1
aI0
aI1
aI0
aI1
aI0
aI1
aI0
aI1
aI0
aI1
aI0
aI1
aI0
aI1
aI0
aI1
aI0
aI1
aI0
aI1
aI0
aI1
aI0
aI1
aI0
aI1
aI0
aI1
aI0
aI1
aI0
aI1
aI0
aI1
aI0
aI1
aI0
aI1
aI0
aI1
aI0
aI1
aI0
aI1
aI0
aI1
aI0
aI1
aI0
aI1
aI0
aI1
aI0
aI1
aI0
aI1
aI0
aI1
aI0
aI1
aI0
aI1
aI0
aI1
aI0
aI1
aI0
aI1
aI0
aI1
aI0
aI1
aI0
aI1
aI0
aI1
aI0
aI1
aI0
aI1
aI0
aI1
aI0
aI1
aI0
aI1
aI0
aI1
aI0
aI1
aI0
aI1
aI0
aI1
aI0
aI1
aI0
aI1
aI0
aI1
aI0
aI1
aI0
aI1
aI0
aI1
aI0
aI1
aI0
aI1
aI0
aI1
aI0
aI1
aI0
aI1
aI0
aI1
aI0
aI1
aI0
aI1
aI0
aI1
aI0
aI1
aI0
aI1
aI0
aI1
aI0
aI1
aI0
aI1
aI0
aI1
aI0
aI1
aI0
aI1
aI0
aI1
aI0
aI1
aI0
aI1
aI0
aI1
aI0
aI1
aI0
aI1
aI0
aI1
aI0
aI1
aI0
aI1
aI0
aI1
aI0
aI1
aI0
aI1
aI0
aI1
aI0
aI1
aI0
aI1
aI0
aI1
aI0
aI1
aI0
aI1
aI0
aI1
aI0
aI1
aI0
aI1
aI0
aI1
aI0
aI1
aI0
aI1
aI0
aI1
aI0
aI1
aI0
aI1
aI0
aI1
aI0
aI1
aI0
aI1
aI0
aI1
aI0
aI1
aI0
aI1
aI0
aI1
aI0
aI1
aI0
aI1
aI0
aI1
aI0
aI1
aI0
aI1
aI0
aI1
aI0
aI1
aI0
aI1
aI0
aI1
aI0
aI1
aI0
aI1
aI0
aI1
aI0
aI1
aI0
aI1
aI0
aI1
aI0
aI1
aI0
aI1
aI0
aI1
aI0
aI1
aI0
aI1
aI0
aI1
aI0
aI1
aI0
aI1
aI0
aI1
aI0
aI1
aI0
aI1
aI0
aI1
aI0
aI1
aI0
aI1
aI0
aI1
aI0
aI1
aI0
aI1
aI0
aI1
aI0
aI1
aI0
aI1
aI0
aI1
aI0
aI1
aI0
aI1
aI0
aI1
aI0
aI1
aI0
aI1
aI0
aI1
aI0
aI1
aI0
aI1
aI0
aI1
aI0
aI1
aI0
aI1
aI0
aI1
aI0
aI1
aI0
aI1
aI0
aI1
aI0
aI1
aI0
aI1
aI0
aI1
aI0
aI1
aI0
aI1
aI0
aI1
aI0
aI1
aI0
aI1
aI0
aI1
aI0
aI1
aI0
aI1
aI0
aI1
aI0
aI1
aI0
aI1
aI0
aI1
aI0
aI1
aI0
aI1
aI0
aI1
aI0
aI1
aI0
aI1
aI0
aI1
aI0
aI1
aI0
aI1
aI0
aI1
aI0
aI1
aI0
aI1
aI0
aI1
aI0
aI1
aI0
aI1
aI0
aI1
aI0
aI1
aI0
aI1
aI0
aI1
aI0
aI1
aI0
aI1
aI0
aI1
aI0
aI1
aI0
aI1
aI0
aI1
aI0
aI1
aI0
aI1
aI0
aI1
aI0
aI1
aI0
aI1
aI0
aI1
aI0
aI1
aI0
aI1
aI0
aI1
aI0
aI1
aI0
aI1
aI0
aI1
aI0
aI1
aI0
aI1
aI0
aI1
aI0
aI1
aI0
aI1
aI0
aI1
aI0
aI1
aI0
aI1
aI0
aI1
aI0
aI1
aI0
aI1
aI0
aI1
aI0
aI1
aI0
aI1
aI0
aI1
aI0
aI1
aI0
aI1
aI0
aI1
aI0
aI1
aI0
aI1
aI0
aI1
aI0
aI1
aI0
aI1
aI0
aI1
aI0
aI1
aI0
aI1
aI0
aI1
aI0
aI1
aI0
aI1
aI0
aI1
aI0
aI1
aI0
aI1
aI0
aI1
aI0
aI1
aI0
aI1
aI0
aI1
aI0
aI1
aI0
aI1
aI0
aI1
aI0
aI1
aI0
aI1
aI0
aI1
aI0
aI1
aI0
aI1
aI0
aI1
aI0
aI1
aI0
aI1
aI0
aI1
aI0
aI1
aI0
aI1
aI0
aI1
aI0
aI1
aI0
aI1
aI0
aI1
aI0
aI1
aI0
aI1
aI0
aI1
aI0
aI1
aI0
aI1
aI0
aI1
aI0
aI1
aI0
aI1
aI0
aI1
aI0
aI1
aI0
aI1
aI0
aI1
aI0
aI1
aI0
aI1
aI0
aI1
aI0
aI1
aI0
aI1
aI0
aI1
aI0
aI1
aI0
aI1
aI0
aI1
aI0
aI1
aI0
aI1
aI0
aI1
aI0
aI1
aI0
aI1
aI0
aI1
aI0
aI1
aI0
aI1
aI0
aI1
aI0
aI1
aI0
aI1
aI0
aI1
aI0
aI1
aI0
aI1
aI0
aI1
aI0
aI1
aI0
aI1
aI0
aI1
aI0
aI1
aI0
aI1
aI0
aI1
aI0
aI1
aI0
aI1
aI0
aI1
aI0
aI1
aI0
aI1
aI0
aI1
aI0
aI1
aI0
aI1
aI0
aI1
aI0
aI1
aI0
aI1
aI0
aI1
aI0
aI1
aI0
aI1
aI0
aI1
aI0
aI1
aI0
aI1
aI0
aI1
aI0
aI1
aI0
aI1
aI0
aI1
aI0
aI1
aI0
aI1
aI0
aI1
aI0
aI1
aI0
aI1
aI0
aI1
aI0
aI1
aI0
aI1
aI0
aI1
aI0
aI1
aI0
aI1
aI0
aI1
aI0
aI1
aI0
aI1
aI0
aI1
aI0
aI1
aI0
aI1
aI0
aI1
aI0
aI1
aI0
aI1
aI0
aI1
aI0
aI1
aI0
aI1
aI0
aI1
aI0
aI1
aI0
aI1
aI0
aI1
aI0
aI1
aI0
aI1
aI0
aI1
aI0
aI1
aI0
aI1
aI0
aI1
aI0
aI1
aI0
aI1
aI0
aI1
aI0
aI1
aI0
aI1
aI0
aI1
aI0
aI1
aI0
aI1
aI0
aI1
aI0
aI1
aI0
aI1
aI0
aI1
aI0
aI1
aI0
aI1
aI0
aI1
aI0
aI1
aI0
aI1
aI0
aI1
aI0
aI1
aI0
aI1
aI0
aI1
aI0
aI1
aI0
aI1
aI0
aI1
aI0
aI1
aI0
aI1
aI0
aI1
aI0
aI1
aI0
aI1
aI0
aI1
aI0
aI1
aI0
aI1
aI0
aI1
aI0
asg18
S'thuleanperspective2016_archive.torrent'
p1694
sg20
F-1
sg21
S'/media/fgloblek/lacie'
p1695
sg23
F1587679195.592438
sg24
I0
sg25
S'3c66bb94dce2f8d636192691c374dbc7d4ca895a'
p1696
sg27
I01
sg28
I00
sg29
I00
sg30
(lp1697
(dp1698
S'send_stats'
p1699
I01
sS'fails'
p1700
I0
sS'verified'
p1701
I00
sS'scrape_incomplete'
p1702
I-1
sS'min_announce'
p1703
NsS'scrape_downloaded'
p1704
I-1
sS'url'
p1705
S'http://bt1.archive.org:6969/announce'
p1706
sS'last_error'
p1707
(dp1708
S'category'
p1709
S'system'
p1710
sS'value'
p1711
I0
ssS'fail_limit'
p1712
I0
sS'next_announce'
p1713
NsS'complete_sent'
p1714
I00
sS'source'
p1715
I1
sS'trackerid'
p1716
S''
sS'start_sent'
p1717
I00
sS'tier'
p1718
I0
sS'scrape_complete'
p1719
I-1
sS'message'
p1720
S''
sS'updating'
p1721
I00
sa(dp1722
S'send_stats'
p1723
I01
sS'fails'
p1724
I0
sS'verified'
p1725
I00
sS'scrape_incomplete'
p1726
I-1
sS'min_announce'
p1727
NsS'scrape_downloaded'
p1728
I-1
sS'url'
p1729
S'http://bt2.archive.org:6969/announce'
p1730
sS'last_error'
p1731
(dp1732
S'category'
p1733
S'system'
p1734
sS'value'
p1735
I0
ssS'fail_limit'
p1736
I0
sS'next_announce'
p1737
NsS'complete_sent'
p1738
I00
sS'source'
p1739
I1
sS'trackerid'
p1740
S''
sS'start_sent'
p1741
I00
sS'tier'
p1742
I1
sS'scrape_complete'
p1743
I-1
sS'message'
p1744
S''
sS'updating'
p1745
I00
sasg56
Nsg57
I00
sg58
F2
sg59
I00
sba(ideluge.core.torrentmanager
TorrentState
p1746
(dp1747
g7
F-1
sg8
S'/home/fgloblek/Downloads'
p1748
sg10
I01
sg11
I-1
sg12
I00
sg13
I-1
sg14
I00
sg15
I9
sg16
(lp1749
I4
aI4
aI4
aI4
aI4
aI4
aI4
aI4
aI4
aI4
aI4
aI4
aI4
aI4
aI4
aI4
aI4
aI4
aI4
aI4
aI4
aI4
asg18
S'd84e5e3601cfaaa4ca4fa7915abd9d89a5ce0efb'
p1750
sg20
F-1
sg21
S'/media/fgloblek/lacie'
p1751
sg23
F1577894772.664125
sg24
I0
sg25
S'd84e5e3601cfaaa4ca4fa7915abd9d89a5ce0efb'
p1752
sg27
I01
sg28
I00
sg29
I00
sg30
(lp1753
(dp1754
S'send_stats'
p1755
I01
sS'fails'
p1756
I0
sS'verified'
p1757
I00
sS'scrape_incomplete'
p1758
I-1
sS'min_announce'
p1759
NsS'scrape_downloaded'
p1760
I-1
sS'url'
p1761
S'http://bt4.t-ru.org/ann?magnet'
p1762
sS'last_error'
p1763
(dp1764
S'category'
p1765
S'system'
p1766
sS'value'
p1767
I0
ssS'fail_limit'
p1768
I0
sS'next_announce'
p1769
NsS'complete_sent'
p1770
I00
sS'source'
p1771
I4
sS'trackerid'
p1772
S''
sS'start_sent'
p1773
I00
sS'tier'
p1774
I0
sS'scrape_complete'
p1775
I-1
sS'message'
p1776
S''
sS'updating'
p1777
I00
sasg56
Nsg57
I00
sg58
F2
sg59
I01
sba(ideluge.core.torrentmanager
TorrentState
p1778
(dp1779
g7
F-1
sg8
S'/home/fgloblek/Downloads'
p1780
sg10
I01
sg11
I-1
sg12
I00
sg13
I-1
sg14
I00
sg15
I45
sg16
(lp1781
I4
aI4
aI4
aI4
aI4
aI4
aI4
aI4
aI4
aI4
aI4
aI4
aI4
aI4
aI4
aI4
aI4
aI4
aI4
aI4
aI4
aI4
aI4
aI4
aI4
aI4
aI4
aI4
aI4
aI4
aI4
aI4
aI4
aI4
aI4
aI4
aI4
aI4
aI4
aI4
aI4
aI4
aI4
aI4
aI4
aI4
aI4
aI4
aI4
aI4
aI4
asg18
S'2394a265bc6da57796040a97c9bd8cc36fc0b12b'
p1782
sg20
F-1
sg21
S'/media/fgloblek/lacie'
p1783
sg23
F1577894825.154175
sg24
I0
sg25
S'2394a265bc6da57796040a97c9bd8cc36fc0b12b'
p1784
sg27
I01
sg28
I00
sg29
I00
sg30
(lp1785
(dp1786
S'send_stats'
p1787
I01
sS'fails'
p1788
I0
sS'verified'
p1789
I00
sS'scrape_incomplete'
p1790
I-1
sS'min_announce'
p1791
NsS'scrape_downloaded'
p1792
I-1
sS'url'
p1793
S'http://bt2.t-ru.org/ann?magnet'
p1794
sS'last_error'
p1795
(dp1796
S'category'
p1797
S'system'
p1798
sS'value'
p1799
I0
ssS'fail_limit'
p1800
I0
sS'next_announce'
p1801
NsS'complete_sent'
p1802
I00
sS'source'
p1803
I4
sS'trackerid'
p1804
S''
sS'start_sent'
p1805
I00
sS'tier'
p1806
I0
sS'scrape_complete'
p1807
I-1
sS'message'
p1808
S''
sS'updating'
p1809
I00
sasg56
Nsg57
I00
sg58
F2
sg59
I00
sba(ideluge.core.torrentmanager
TorrentState
p1810
(dp1811
g7
F-1
sg8
S'/home/fgloblek/Downloads'
p1812
sg10
I00
sg11
I-1
sg12
I00
sg13
I-1
sg14
I00
sg15
I8
sg16
(lp1813
I1
aI1
aI1
aI1
aI1
aI1
aI1
aI1
aI1
aI1
aI1
aI1
aI1
aI1
aI1
aI1
aI1
aI1
aI1
aI1
aI1
aI1
aI1
aI1
asg18
S'thuleanperspective2014_archive.torrent'
p1814
sg20
F-1
sg21
S'/media/fgloblek/lacie'
p1815
sg23
F1587679230.218513
sg24
I0
sg25
S'd4e6715172cf1df67a17b9d4d6fbc8788ee17f1e'
p1816
sg27
I01
sg28
I00
sg29
I00
sg30
(lp1817
(dp1818
S'send_stats'
p1819
I01
sS'fails'
p1820
I0
sS'verified'
p1821
I00
sS'scrape_incomplete'
p1822
I-1
sS'min_announce'
p1823
NsS'scrape_downloaded'
p1824
I-1
sS'url'
p1825
S'http://bt1.archive.org:6969/announce'
p1826
sS'last_error'
p1827
(dp1828
S'category'
p1829
S'system'
p1830
sS'value'
p1831
I0
ssS'fail_limit'
p1832
I0
sS'next_announce'
p1833
NsS'complete_sent'
p1834
I00
sS'source'
p1835
I1
sS'trackerid'
p1836
S''
sS'start_sent'
p1837
I00
sS'tier'
p1838
I0
sS'scrape_complete'
p1839
I-1
sS'message'
p1840
S''
sS'updating'
p1841
I00
sa(dp1842
S'send_stats'
p1843
I01
sS'fails'
p1844
I0
sS'verified'
p1845
I00
sS'scrape_incomplete'
p1846
I-1
sS'min_announce'
p1847
NsS'scrape_downloaded'
p1848
I-1
sS'url'
p1849
S'http://bt2.archive.org:6969/announce'
p1850
sS'last_error'
p1851
(dp1852
S'category'
p1853
S'system'
p1854
sS'value'
p1855
I0
ssS'fail_limit'
p1856
I0
sS'next_announce'
p1857
NsS'complete_sent'
p1858
I00
sS'source'
p1859
I1
sS'trackerid'
p1860
S''
sS'start_sent'
p1861
I00
sS'tier'
p1862
I1
sS'scrape_complete'
p1863
I-1
sS'message'
p1864
S''
sS'updating'
p1865
I00
sasg56
Nsg57
I00
sg58
F2
sg59
I01
sba(ideluge.core.torrentmanager
TorrentState
p1866
(dp1867
g7
F-1
sg8
S'/home/fgloblek/Downloads'
p1868
sg10
I00
sg11
I-1
sg12
I00
sg13
I-1
sg14
I00
sg15
I27
sg16
(lp1869
sg18
S'7effe04e308e1459264cc0a57a27060c12e50d21'
p1870
sg20
F-1
sg21
S'/media/fgloblek/lacie'
p1871
sg23
F1601655163.41257
sg24
I0
sg25
S'7effe04e308e1459264cc0a57a27060c12e50d21'
p1872
sg27
I01
sg28
I00
sg29
I00
sg30
(lp1873
(dp1874
S'send_stats'
p1875
I01
sS'fails'
p1876
I0
sS'verified'
p1877
I00
sS'scrape_incomplete'
p1878
I-1
sS'min_announce'
p1879
NsS'scrape_downloaded'
p1880
I-1
sS'url'
p1881
S'udp://tracker.openbittorrent.com:80'
p1882
sS'last_error'
p1883
(dp1884
S'category'
p1885
S'system'
p1886
sS'value'
p1887
I0
ssS'fail_limit'
p1888
I0
sS'next_announce'
p1889
NsS'complete_sent'
p1890
I00
sS'source'
p1891
I4
sS'trackerid'
p1892
S''
sS'start_sent'
p1893
I00
sS'tier'
p1894
I0
sS'scrape_complete'
p1895
I-1
sS'message'
p1896
S''
sS'updating'
p1897
I00
sa(dp1898
S'send_stats'
p1899
I01
sS'fails'
p1900
I0
sS'verified'
p1901
I00
sS'scrape_incomplete'
p1902
I-1
sS'min_announce'
p1903
NsS'scrape_downloaded'
p1904
I-1
sS'url'
p1905
S'udp://tracker.opentrackr.org:1337/announce'
p1906
sS'last_error'
p1907
(dp1908
S'category'
p1909
S'system'
p1910
sS'value'
p1911
I0
ssS'fail_limit'
p1912
I0
sS'next_announce'
p1913
NsS'complete_sent'
p1914
I00
sS'source'
p1915
I4
sS'trackerid'
p1916
S''
sS'start_sent'
p1917
I00
sS'tier'
p1918
I1
sS'scrape_complete'
p1919
I-1
sS'message'
p1920
S''
sS'updating'
p1921
I00
sasg56
S'magnet:?xt=urn:btih:7effe04e308e1459264cc0a57a27060c12e50d21&dn=The_Killers.Discography-TB&tr=udp://tracker.openbittorrent.com:80&tr=udp://tracker.opentrackr.org:1337/announce'
p1922
sg57
I00
sg58
F2
sg59
I00
sba(ideluge.core.torrentmanager
TorrentState
p1923
(dp1924
g7
F-1
sg8
S'/home/fgloblek/Downloads'
p1925
sg10
I00
sg11
I-1
sg12
I00
sg13
I-1
sg14
I00
sg15
I5
sg16
(lp1926
I4
asg18
S'221096c1d5afd12a773792007a42aef223cdb637'
p1927
sg20
F-1
sg21
S'/home/fgloblek/Downloads'
p1928
sg23
F1609887459.4179909
sg24
I3011669
sg25
S'221096c1d5afd12a773792007a42aef223cdb637'
p1929
sg27
I01
sg28
I00
sg29
I00
sg30
(lp1930
(dp1931
S'send_stats'
p1932
I01
sS'fails'
p1933
I0
sS'verified'
p1934
I00
sS'scrape_incomplete'
p1935
I-1
sS'min_announce'
p1936
NsS'scrape_downloaded'
p1937
I-1
sS'url'
p1938
S'http://bt2.t-ru.org/ann?magnet'
p1939
sS'last_error'
p1940
(dp1941
S'category'
p1942
S'system'
p1943
sS'value'
p1944
I0
ssS'fail_limit'
p1945
I0
sS'next_announce'
p1946
NsS'complete_sent'
p1947
I00
sS'source'
p1948
I4
sS'trackerid'
p1949
S''
sS'start_sent'
p1950
I00
sS'tier'
p1951
I0
sS'scrape_complete'
p1952
I-1
sS'message'
p1953
S''
sS'updating'
p1954
I00
sasg56
Nsg57
I00
sg58
F2
sg59
I01
sbasb.