(dp1
S'sort_id'
p2
I6
sS'sort_order'
p3
I1
sS'columns'
p4
(dp5
S'Client'
p6
(dp7
S'position'
p8
I2
sS'width'
p9
I341
ssN(dp10
g8
I0
sg9
I20
ssS'Address'
p11
(dp12
g8
I1
sg9
I224
ssS'Progress'
p13
(dp14
g8
I3
sg9
I100
ssS'Up Speed'
p15
(dp16
g8
I5
sg9
I1140
ssS'Down Speed'
p17
(dp18
g8
I4
sg9
I91
sss.